(dp0
S'data'
p1
(dp2
I1
(dp3
I1
I5
sI2
I3
sI3
I4
sI4
I3
sI5
I3
sI6
I5
sI7
I4
sI8
I1
sI9
I5
sI10
I3
sI11
I2
sI12
I5
sI13
I5
sI14
I5
sI15
I5
sI16
I5
sI17
I3
sI18
I4
sI19
I5
sI20
I4
sI21
I1
sI22
I4
sI23
I4
sI24
I3
sI25
I4
sI26
I3
sI27
I2
sI28
I4
sI29
I1
sI30
I3
sI31
I3
sI32
I5
sI33
I4
sI34
I2
sI35
I1
sI36
I2
sI37
I2
sI38
I3
sI39
I4
sI40
I3
sI41
I2
sI42
I5
sI43
I4
sI44
I5
sI45
I5
sI46
I4
sI47
I4
sI48
I5
sI49
I3
sI50
I5
sI51
I4
sI52
I4
sI53
I3
sI54
I3
sI55
I5
sI56
I4
sI57
I5
sI58
I4
sI59
I5
sI60
I5
sI61
I4
sI62
I3
sI63
I2
sI64
I5
sI65
I4
sI66
I4
sI67
I3
sI68
I4
sI69
I3
sI70
I3
sI71
I3
sI72
I4
sI73
I3
sI74
I1
sI75
I4
sI76
I4
sI77
I4
sI78
I1
sI79
I4
sI80
I4
sI81
I5
sI82
I5
sI83
I3
sI84
I4
sI85
I3
sI86
I5
sI87
I5
sI88
I4
sI89
I5
sI90
I4
sI91
I5
sI92
I3
sI93
I5
sI94
I2
sI95
I4
sI96
I5
sI97
I3
sI98
I4
sI99
I3
ssI2
(dp4
I1
I4
sI10
I2
sI13
I4
sI14
I4
sI50
I5
sI19
I3
sI25
I4
ssI4
(dp5
I50
I5
sI11
I4
ssI5
(dp6
I1
I4
sI2
I3
sI17
I4
sI21
I3
sI24
I4
sI25
I3
sI29
I4
sI40
I4
sI42
I5
sI50
I4
sI62
I4
sI63
I1
sI66
I1
sI69
I1
sI70
I4
sI79
I3
sI80
I2
sI89
I5
sI90
I3
sI94
I3
sI95
I4
sI98
I3
sI99
I3
ssI6
(dp7
I1
I4
sI7
I2
sI8
I4
sI9
I4
sI12
I4
sI13
I2
sI14
I5
sI15
I3
sI19
I4
sI21
I3
sI22
I3
sI23
I4
sI28
I2
sI32
I4
sI47
I3
sI50
I4
sI56
I4
sI59
I5
sI64
I4
sI69
I3
sI70
I3
sI71
I4
sI79
I3
sI81
I4
sI86
I3
sI87
I4
sI89
I4
sI95
I2
sI98
I5
ssI7
(dp8
I4
I5
sI7
I5
sI8
I5
sI9
I5
sI10
I4
sI11
I3
sI12
I5
sI22
I5
sI23
I3
sI25
I3
sI27
I4
sI28
I5
sI29
I3
sI31
I4
sI32
I4
sI39
I5
sI44
I5
sI47
I5
sI50
I5
sI51
I2
sI52
I4
sI53
I5
sI54
I3
sI56
I5
sI62
I3
sI64
I5
sI68
I4
sI69
I5
sI70
I1
sI71
I5
sI72
I5
sI73
I3
sI77
I5
sI78
I3
sI79
I4
sI80
I4
sI81
I5
sI82
I3
sI86
I4
sI89
I5
sI90
I3
sI91
I3
sI92
I5
sI93
I5
sI96
I5
sI97
I5
sI98
I4
sI99
I5
ssI8
(dp9
I96
I3
sI7
I3
sI11
I3
sI82
I5
sI79
I4
sI50
I5
sI22
I5
sI55
I5
sI56
I5
sI89
I4
ssI9
(dp10
I50
I5
sI6
I5
sI7
I4
ssI10
(dp11
I1
I4
sI4
I4
sI7
I4
sI9
I4
sI11
I4
sI12
I5
sI13
I3
sI16
I4
sI22
I5
sI23
I5
sI32
I4
sI33
I4
sI40
I4
sI48
I4
sI50
I5
sI56
I5
sI59
I4
sI60
I3
sI64
I4
sI69
I4
sI70
I4
sI82
I4
sI85
I4
sI93
I4
sI98
I4
sI99
I5
ssI11
(dp12
I8
I4
sI9
I5
sI11
I2
sI12
I2
sI15
I5
sI22
I4
sI24
I3
sI25
I3
sI28
I5
sI29
I3
sI38
I3
sI39
I3
sI40
I3
sI42
I3
sI47
I4
sI51
I4
sI52
I3
sI54
I3
sI56
I4
sI57
I2
sI58
I3
sI69
I3
sI70
I4
sI79
I4
sI83
I5
sI86
I4
sI88
I3
sI90
I2
sI94
I3
sI97
I4
sI98
I2
ssI12
(dp13
I96
I4
sI97
I5
sI98
I5
sI4
I5
sI69
I5
sI71
I4
sI50
I4
sI15
I5
sI82
I4
sI88
I5
sI28
I5
ssI13
(dp14
I1
I3
sI2
I3
sI4
I5
sI5
I1
sI7
I2
sI8
I4
sI9
I3
sI11
I1
sI12
I5
sI13
I5
sI14
I4
sI17
I1
sI21
I3
sI22
I4
sI23
I5
sI24
I1
sI25
I1
sI27
I3
sI28
I5
sI29
I2
sI32
I4
sI33
I5
sI37
I1
sI38
I3
sI39
I3
sI40
I2
sI42
I4
sI45
I3
sI48
I5
sI49
I4
sI50
I5
sI51
I3
sI53
I1
sI56
I5
sI58
I4
sI59
I4
sI60
I4
sI61
I4
sI62
I5
sI64
I5
sI66
I3
sI67
I1
sI68
I3
sI69
I4
sI70
I3
sI71
I4
sI72
I4
sI73
I3
sI78
I1
sI79
I3
sI82
I2
sI83
I2
sI86
I1
sI87
I5
sI88
I4
sI89
I4
sI90
I3
sI91
I2
sI92
I3
sI94
I3
sI95
I5
sI96
I4
sI97
I4
sI98
I4
sI99
I4
ssI14
(dp15
I96
I4
sI32
I5
sI98
I3
sI70
I1
sI7
I5
sI9
I4
sI42
I4
sI18
I3
sI12
I5
sI13
I4
sI14
I3
sI15
I4
sI81
I5
sI50
I5
sI19
I5
sI22
I3
sI23
I5
sI56
I5
sI25
I2
sI93
I3
ssI15
(dp16
I1
I1
sI50
I5
sI7
I1
sI9
I4
sI13
I1
sI14
I4
sI15
I4
sI18
I1
sI20
I3
sI25
I3
ssI16
(dp17
I1
I5
sI4
I5
sI7
I5
sI8
I5
sI9
I5
sI11
I5
sI12
I5
sI15
I5
sI22
I5
sI27
I2
sI28
I5
sI31
I5
sI33
I2
sI39
I5
sI51
I4
sI55
I5
sI56
I5
sI58
I4
sI64
I5
sI66
I4
sI69
I5
sI70
I4
sI71
I5
sI76
I5
sI79
I5
sI87
I4
sI89
I2
sI92
I4
sI95
I5
sI96
I5
sI98
I5
sI99
I5
ssI17
(dp18
I9
I3
sI7
I4
sI13
I3
sI1
I4
ssI18
(dp19
I1
I5
sI4
I3
sI6
I5
sI8
I5
sI9
I5
sI12
I5
sI13
I5
sI14
I5
sI15
I4
sI19
I3
sI22
I5
sI23
I4
sI25
I3
sI26
I4
sI28
I3
sI32
I2
sI42
I3
sI45
I5
sI47
I3
sI48
I4
sI50
I4
sI52
I5
sI56
I5
sI57
I4
sI58
I4
sI59
I4
sI60
I4
sI61
I4
sI64
I5
sI65
I5
sI66
I3
sI69
I3
sI70
I4
sI71
I4
sI72
I3
sI79
I4
sI81
I3
sI82
I3
sI83
I5
sI86
I4
sI88
I3
sI89
I3
sI91
I3
sI94
I3
sI95
I4
sI97
I4
sI98
I5
sI99
I5
ssI19
(dp20
I8
I5
sI4
I4
ssI20
(dp21
I1
I3
sI98
I3
sI69
I1
sI11
I2
sI82
I4
sI15
I4
sI50
I3
sI22
I5
sI87
I5
sI94
I2
sI95
I3
ssI21
(dp22
I1
I5
sI98
I5
sI5
I2
sI7
I5
sI9
I5
sI15
I4
sI17
I4
sI50
I3
sI53
I4
sI56
I5
ssI22
(dp23
I96
I5
sI68
I4
sI2
I2
sI4
I5
sI62
I4
sI79
I4
sI80
I4
sI17
I4
sI50
I5
sI53
I3
sI24
I5
sI89
I5
sI21
I4
sI29
I1
sI94
I3
sI85
I5
ssI23
(dp24
I1
I5
sI7
I4
sI8
I4
sI13
I4
sI14
I4
sI19
I4
sI28
I3
sI32
I3
sI50
I4
sI55
I4
sI56
I4
sI59
I4
sI62
I3
sI70
I2
sI71
I3
sI73
I3
sI79
I4
sI82
I3
sI83
I4
sI88
I3
sI89
I5
sI90
I2
sI91
I4
sI95
I4
sI96
I4
sI98
I5
sI99
I4
ssI24
(dp25
I64
I5
sI97
I4
sI98
I5
sI69
I5
sI71
I5
sI8
I5
sI9
I5
sI11
I5
sI12
I5
sI79
I4
sI41
I5
sI55
I5
sI56
I4
sI25
I4
sI58
I3
sI92
I5
sI7
I4
ssI25
(dp26
I1
I5
sI98
I5
sI82
I4
sI7
I4
sI8
I4
sI13
I4
sI79
I4
sI50
I5
sI86
I4
sI23
I4
sI25
I5
ssI26
(dp27
I1
I3
sI7
I3
sI9
I4
sI13
I3
sI14
I3
sI15
I4
sI50
I4
sI24
I3
sI25
I3
ssI27
(dp28
I9
I4
sI50
I3
ssI28
(dp29
I96
I5
sI98
I5
sI5
I3
sI70
I4
sI7
I5
sI11
I4
sI12
I4
sI79
I4
sI50
I4
sI56
I5
sI89
I4
sI31
I4
sI28
I4
sI95
I3
ssI29
(dp30
I98
I4
sI12
I5
sI79
I4
ssI30
(dp31
I2
I3
sI69
I5
sI7
I4
sI50
I3
sI82
I4
sI28
I4
sI29
I3
ssI31
(dp32
I32
I5
sI79
I2
ssI32
(dp33
I9
I3
sI50
I4
sI7
I4
ssI37
(dp34
I96
I4
sI68
I5
sI7
I4
sI11
I4
sI50
I5
sI79
I4
sI24
I4
sI82
I1
sI22
I5
sI55
I3
sI56
I5
sI89
I4
sI27
I4
sI92
I4
sI62
I5
ssI38
(dp35
I1
I5
sI67
I4
sI97
I5
sI69
I5
sI70
I5
sI71
I5
sI35
I5
sI78
I5
sI79
I3
sI82
I5
sI99
I5
sI84
I5
sI22
I5
sI88
I5
sI28
I4
sI94
I5
sI95
I5
ssI41
(dp36
I96
I4
sI1
I4
sI98
I4
sI69
I4
sI97
I3
sI50
I5
sI56
I4
sI58
I3
sI28
I4
sI31
I3
ssI42
(dp37
I1
I5
sI2
I5
sI12
I4
sI15
I4
sI25
I3
sI28
I5
sI38
I3
sI43
I2
sI44
I3
sI48
I5
sI50
I5
sI54
I4
sI58
I5
sI63
I4
sI64
I5
sI66
I4
sI69
I4
sI70
I3
sI71
I4
sI72
I3
sI73
I4
sI77
I5
sI79
I5
sI82
I4
sI83
I4
sI86
I3
sI87
I4
sI88
I5
sI95
I5
sI96
I5
sI97
I3
sI98
I4
sI99
I5
ssI43
(dp38
I1
I5
sI3
I2
sI4
I4
sI5
I4
sI7
I4
sI8
I4
sI9
I4
sI11
I5
sI12
I5
sI14
I2
sI15
I5
sI17
I3
sI25
I5
sI26
I5
sI28
I4
sI40
I3
sI47
I1
sI49
I4
sI50
I4
sI51
I1
sI52
I4
sI54
I3
sI56
I5
sI58
I3
sI63
I3
sI64
I5
sI66
I4
sI69
I4
sI70
I4
sI71
I4
sI73
I4
sI77
I3
sI79
I4
sI82
I4
sI86
I4
sI88
I5
sI91
I3
sI95
I4
sI97
I5
sI98
I5
ssI44
(dp39
I1
I4
sI5
I4
sI7
I5
sI9
I5
sI11
I3
sI15
I4
sI21
I2
sI22
I4
sI24
I3
sI25
I2
sI31
I4
sI50
I5
sI55
I4
sI56
I2
sI64
I5
sI67
I3
sI69
I4
sI71
I3
sI81
I4
sI82
I4
sI87
I5
sI88
I2
sI89
I5
sI90
I2
sI91
I2
sI95
I4
sI96
I4
sI97
I2
sI98
I2
sI99
I4
ssI45
(dp40
I1
I5
sI7
I3
sI13
I5
sI15
I4
sI50
I5
sI21
I3
sI24
I3
sI25
I4
ssI46
(dp41
I50
I4
sI93
I4
sI7
I4
ssI48
(dp42
I56
I3
sI50
I4
sI28
I2
sI98
I5
sI71
I3
ssI49
(dp43
I1
I2
sI2
I1
sI3
I3
sI4
I2
sI7
I4
sI8
I3
sI10
I3
sI11
I3
sI12
I4
sI13
I3
sI17
I2
sI25
I2
sI38
I1
sI39
I2
sI40
I1
sI42
I4
sI47
I5
sI49
I2
sI50
I1
sI52
I2
sI53
I4
sI54
I2
sI55
I4
sI56
I5
sI57
I4
sI62
I2
sI68
I1
sI70
I2
sI71
I3
sI72
I2
sI77
I1
sI80
I1
sI82
I1
sI85
I3
sI90
I1
sI91
I5
sI93
I5
sI95
I2
sI96
I1
sI98
I4
sI99
I4
ssI50
(dp44
I9
I4
sI15
I2
ssI51
(dp45
I64
I4
sI50
I5
sI83
I5
ssI52
(dp46
I7
I5
sI13
I5
sI15
I5
sI19
I5
sI22
I5
sI25
I5
sI93
I4
sI95
I4
ssI53
(dp47
I64
I5
sI96
I4
sI7
I3
sI15
I5
sI50
I4
sI24
I3
sI25
I4
ssI54
(dp48
I24
I1
sI25
I4
sI50
I5
sI1
I4
sI7
I4
ssI55
(dp49
I7
I3
sI79
I5
sI50
I4
sI22
I5
sI56
I4
sI89
I5
ssI56
(dp50
I1
I4
sI7
I5
sI11
I4
sI22
I5
sI25
I4
sI28
I5
sI29
I3
sI31
I4
sI38
I2
sI42
I4
sI44
I4
sI50
I5
sI51
I3
sI53
I3
sI56
I5
sI62
I5
sI63
I3
sI64
I5
sI66
I3
sI67
I2
sI68
I3
sI69
I4
sI70
I4
sI71
I4
sI73
I4
sI77
I3
sI78
I3
sI79
I4
sI82
I4
sI87
I4
sI88
I1
sI89
I4
sI90
I2
sI91
I4
sI94
I4
sI95
I4
sI96
I5
sI97
I3
sI98
I4
ssI57
(dp51
I64
I5
sI1
I5
sI7
I4
sI8
I4
sI42
I5
sI11
I3
sI79
I5
sI24
I3
sI50
I5
sI56
I3
sI15
I4
sI28
I4
ssI58
(dp52
I64
I5
sI32
I5
sI98
I4
sI69
I1
sI70
I4
sI1
I5
sI8
I4
sI9
I4
sI42
I4
sI11
I5
sI12
I5
sI45
I5
sI13
I3
sI50
I4
sI20
I1
sI25
I4
sI56
I5
sI89
I3
sI61
I5
sI7
I5
ssI59
(dp53
I1
I2
sI3
I4
sI4
I4
sI7
I4
sI9
I4
sI10
I4
sI11
I5
sI12
I5
sI13
I5
sI14
I5
sI15
I5
sI18
I4
sI22
I4
sI23
I5
sI24
I4
sI25
I4
sI28
I5
sI30
I5
sI32
I4
sI33
I3
sI39
I4
sI42
I5
sI44
I4
sI45
I5
sI47
I5
sI48
I5
sI50
I5
sI51
I5
sI52
I4
sI53
I5
sI54
I4
sI55
I5
sI56
I5
sI58
I4
sI59
I5
sI60
I5
sI61
I4
sI64
I5
sI65
I4
sI68
I2
sI69
I5
sI70
I3
sI71
I3
sI73
I4
sI77
I4
sI79
I5
sI81
I4
sI82
I5
sI83
I4
sI86
I3
sI87
I4
sI89
I5
sI90
I2
sI91
I4
sI92
I5
sI95
I2
sI96
I5
sI97
I5
sI98
I5
sI99
I4
ssI60
(dp54
I7
I5
sI8
I3
sI9
I5
sI12
I4
sI13
I4
sI15
I4
sI21
I3
sI23
I4
sI28
I5
sI30
I5
sI47
I4
sI50
I5
sI56
I4
sI59
I5
sI60
I5
sI61
I4
sI64
I4
sI69
I4
sI70
I4
sI71
I3
sI73
I4
sI77
I4
sI79
I4
sI82
I3
sI88
I4
sI89
I5
sI95
I4
sI96
I4
sI97
I3
sI98
I4
ssI62
(dp55
I1
I2
sI3
I3
sI4
I4
sI7
I4
sI8
I5
sI9
I4
sI12
I4
sI13
I4
sI14
I4
sI15
I2
sI20
I4
sI21
I3
sI22
I4
sI24
I4
sI28
I3
sI33
I1
sI44
I3
sI47
I4
sI50
I5
sI53
I2
sI55
I5
sI56
I5
sI59
I4
sI62
I3
sI64
I4
sI65
I4
sI68
I1
sI69
I4
sI70
I3
sI71
I4
sI72
I3
sI76
I4
sI78
I2
sI81
I4
sI82
I4
sI83
I5
sI86
I2
sI89
I5
sI91
I4
sI96
I4
sI97
I2
sI98
I4
ssI63
(dp56
I1
I3
sI3
I2
sI6
I3
sI10
I4
sI13
I4
sI14
I4
sI15
I3
sI50
I4
sI20
I3
sI25
I4
sI79
I3
ssI64
(dp57
I1
I4
sI2
I3
sI4
I3
sI7
I4
sI8
I4
sI9
I4
sI10
I5
sI11
I4
sI12
I5
sI17
I3
sI22
I4
sI28
I4
sI31
I4
sI32
I1
sI38
I3
sI48
I5
sI50
I5
sI52
I3
sI56
I5
sI58
I3
sI62
I2
sI64
I4
sI69
I4
sI70
I5
sI71
I3
sI72
I4
sI77
I3
sI79
I4
sI81
I4
sI82
I3
sI83
I3
sI87
I4
sI89
I3
sI91
I4
sI93
I2
sI95
I4
sI96
I4
sI97
I3
sI98
I4
ssI65
(dp58
I1
I3
sI7
I1
sI9
I5
sI15
I5
sI25
I4
sI28
I4
sI47
I2
sI48
I5
sI50
I5
sI56
I3
sI63
I2
sI64
I5
sI65
I3
sI66
I3
sI69
I3
sI70
I1
sI73
I4
sI77
I5
sI87
I5
sI88
I4
sI97
I5
sI98
I4
ssI66
(dp59
I1
I3
sI7
I3
sI9
I4
sI15
I3
sI50
I5
sI21
I1
sI24
I3
ssI67
(dp60
I64
I5
sI1
I3
sI25
I4
sI24
I4
sI7
I5
ssI68
(dp61
I25
I4
sI50
I5
sI9
I4
sI7
I3
ssI69
(dp62
I98
I5
sI7
I5
sI9
I4
sI42
I5
sI12
I5
sI79
I4
sI48
I5
sI50
I5
sI56
I5
ssI70
(dp63
I96
I4
sI1
I4
sI99
I4
sI69
I4
sI71
I3
sI8
I4
sI91
I3
sI79
I4
sI50
I4
sI15
I3
sI48
I4
sI88
I4
sI82
I4
sI83
I4
sI24
I4
sI89
I4
sI63
I3
sI28
I4
sI94
I3
sI95
I4
ssI71
(dp64
I64
I4
sI65
I5
sI98
I4
sI6
I3
sI14
I5
sI50
I3
sI52
I4
sI56
I5
sI89
I5
ssI72
(dp65
I1
I4
sI2
I3
sI5
I4
sI7
I1
sI9
I5
sI12
I5
sI15
I5
sI23
I4
sI25
I5
sI28
I4
sI38
I3
sI45
I5
sI48
I4
sI50
I2
sI51
I4
sI54
I3
sI56
I5
sI58
I4
sI64
I5
sI68
I3
sI69
I4
sI70
I4
sI77
I4
sI79
I4
sI81
I3
sI82
I3
sI87
I4
sI89
I3
sI96
I5
sI97
I4
sI98
I5
ssI73
(dp66
I32
I4
sI64
I5
sI1
I2
sI7
I4
sI96
I2
sI12
I5
sI48
I2
sI81
I5
sI82
I2
sI56
I4
sI89
I5
sI59
I5
sI28
I3
sI94
I1
ssI74
(dp67
I9
I4
sI7
I4
sI13
I4
sI15
I4
ssI75
(dp68
I56
I5
sI1
I4
sI79
I5
sI13
I5
sI25
I5
ssI76
(dp69
I64
I5
sI96
I5
sI98
I5
sI70
I4
sI6
I5
sI7
I4
sI60
I4
sI42
I3
sI12
I3
sI77
I2
sI93
I4
sI24
I2
sI23
I5
sI56
I5
sI89
I4
sI59
I4
sI92
I4
sI61
I4
ssI77
(dp70
I96
I3
sI97
I2
sI98
I4
sI4
I3
sI69
I3
sI1
I5
sI42
I5
sI15
I2
sI50
I4
sI52
I5
sI23
I4
sI56
I4
sI89
I5
sI25
I2
sI91
I3
sI28
I5
sI31
I3
ssI78
(dp71
I25
I3
sI93
I4
ssI79
(dp72
I1
I4
sI6
I4
sI7
I5
sI10
I5
sI13
I3
sI50
I4
sI19
I5
sI93
I2
ssI80
(dp73
I64
I5
sI45
I4
sI79
I4
sI50
I3
sI86
I5
sI87
I4
sI58
I4
ssI81
(dp74
I1
I4
sI98
I5
sI3
I4
sI7
I4
sI42
I4
sI79
I5
sI25
I5
sI93
I3
ssI82
(dp75
I1
I4
sI3
I2
sI7
I3
sI8
I4
sI9
I4
sI11
I4
sI13
I2
sI14
I4
sI15
I3
sI21
I1
sI22
I3
sI25
I2
sI28
I3
sI50
I5
sI56
I3
sI64
I5
sI69
I4
sI70
I4
sI71
I4
sI73
I4
sI79
I3
sI81
I3
sI87
I3
sI97
I4
sI99
I4
ssI83
(dp76
I1
I4
sI2
I4
sI4
I2
sI15
I4
sI22
I5
sI25
I2
sI28
I4
sI31
I5
sI35
I1
sI38
I5
sI43
I4
sI50
I3
sI56
I1
sI63
I4
sI64
I5
sI66
I4
sI69
I4
sI70
I4
sI71
I3
sI77
I4
sI78
I2
sI79
I5
sI82
I5
sI88
I5
sI94
I4
sI95
I4
sI97
I4
ssI84
(dp77
I64
I5
sI1
I2
sI98
I4
sI4
I3
sI70
I5
sI7
I4
sI79
I4
sI12
I5
sI15
I4
sI87
I5
sI25
I3
sI95
I4
sI31
I4
ssI85
(dp78
I8
I4
sI9
I4
sI10
I4
sI13
I3
sI14
I4
sI23
I4
sI25
I2
sI27
I4
sI28
I4
sI30
I3
sI42
I3
sI45
I3
sI50
I5
sI51
I2
sI52
I3
sI53
I3
sI56
I4
sI57
I5
sI58
I4
sI64
I5
sI65
I3
sI69
I4
sI70
I4
sI71
I4
sI79
I3
sI82
I3
sI83
I4
sI86
I4
sI87
I4
sI89
I4
sI94
I3
sI95
I4
sI97
I2
sI98
I4
sI99
I5
ssI87
(dp79
I2
I4
sI4
I5
sI7
I4
sI8
I5
sI9
I4
sI13
I3
sI21
I3
sI22
I4
sI25
I4
sI27
I4
sI33
I3
sI38
I5
sI39
I3
sI40
I3
sI47
I3
sI48
I4
sI49
I5
sI50
I5
sI55
I4
sI56
I4
sI62
I5
sI63
I4
sI64
I5
sI66
I5
sI67
I4
sI68
I3
sI70
I5
sI72
I3
sI73
I3
sI79
I5
sI80
I4
sI82
I5
sI87
I4
sI88
I5
sI89
I4
sI90
I2
sI94
I4
sI96
I5
sI97
I5
ssI89
(dp80
I1
I5
sI66
I3
sI7
I5
sI13
I2
sI14
I4
sI15
I5
sI49
I4
sI50
I5
sI83
I4
sI86
I5
sI88
I4
sI25
I5
sI26
I3
sI93
I2
ssI90
(dp81
I6
I4
sI8
I5
sI9
I4
sI10
I5
sI11
I4
sI12
I5
sI14
I5
sI17
I4
sI18
I3
sI19
I3
sI20
I4
sI22
I4
sI23
I5
sI25
I5
sI26
I4
sI30
I5
sI31
I4
sI33
I4
sI42
I4
sI45
I3
sI52
I5
sI56
I5
sI57
I5
sI59
I5
sI60
I4
sI64
I4
sI65
I4
sI69
I1
sI70
I5
sI79
I4
sI83
I5
sI86
I5
sI89
I5
sI96
I4
sI97
I5
sI98
I5
ssI91
(dp82
I64
I4
sI97
I5
sI98
I5
sI99
I2
sI69
I5
sI50
I5
sI79
I5
sI82
I5
sI22
I5
sI56
I1
sI28
I4
sI31
I5
ssI92
(dp83
I1
I4
sI2
I3
sI4
I4
sI5
I4
sI7
I4
sI8
I5
sI9
I4
sI11
I4
sI12
I5
sI13
I4
sI15
I3
sI22
I3
sI24
I3
sI25
I3
sI28
I3
sI29
I3
sI31
I4
sI32
I3
sI38
I3
sI39
I3
sI40
I3
sI42
I4
sI43
I3
sI44
I3
sI46
I4
sI47
I4
sI48
I4
sI49
I3
sI50
I5
sI51
I4
sI53
I3
sI54
I3
sI55
I3
sI56
I5
sI58
I4
sI62
I3
sI63
I3
sI64
I4
sI65
I4
sI66
I3
sI67
I3
sI68
I3
sI69
I5
sI71
I5
sI72
I3
sI73
I3
sI77
I3
sI78
I3
sI79
I4
sI80
I2
sI81
I3
sI82
I2
sI85
I3
sI87
I3
sI88
I3
sI89
I5
sI91
I3
sI92
I4
sI93
I4
sI94
I3
sI95
I3
sI96
I4
sI98
I5
ssI93
(dp84
I1
I5
sI14
I4
sI15
I5
ssI94
(dp85
I1
I4
sI4
I4
sI7
I4
sI8
I5
sI9
I5
sI11
I5
sI12
I4
sI17
I2
sI22
I4
sI23
I5
sI24
I4
sI25
I3
sI28
I4
sI29
I2
sI31
I4
sI32
I5
sI33
I3
sI34
I1
sI38
I2
sI39
I3
sI41
I3
sI42
I4
sI45
I5
sI47
I5
sI49
I4
sI50
I5
sI51
I3
sI52
I5
sI53
I4
sI54
I4
sI55
I4
sI56
I5
sI58
I5
sI61
I5
sI62
I3
sI63
I3
sI64
I5
sI66
I2
sI67
I3
sI68
I4
sI69
I3
sI70
I4
sI71
I4
sI72
I3
sI76
I4
sI77
I3
sI79
I4
sI80
I2
sI81
I4
sI82
I4
sI83
I4
sI86
I5
sI88
I3
sI89
I3
sI90
I3
sI91
I5
sI92
I4
sI93
I4
sI94
I2
sI96
I3
sI97
I4
sI98
I4
sI99
I3
ssI95
(dp86
I1
I5
sI2
I2
sI3
I1
sI7
I5
sI8
I5
sI14
I5
sI15
I4
sI22
I4
sI24
I3
sI25
I3
sI26
I3
sI28
I4
sI31
I4
sI32
I1
sI33
I3
sI43
I2
sI48
I4
sI49
I3
sI50
I5
sI51
I4
sI52
I4
sI58
I3
sI62
I4
sI63
I3
sI64
I5
sI65
I4
sI67
I2
sI68
I4
sI69
I5
sI70
I4
sI71
I5
sI72
I2
sI73
I4
sI77
I4
sI78
I3
sI79
I4
sI82
I3
sI83
I5
sI88
I4
sI89
I3
sI90
I2
sI91
I5
sI94
I5
sI95
I3
sI96
I4
sI97
I4
sI98
I4
sI99
I4
ssI96
(dp87
I64
I5
sI1
I5
sI98
I5
sI7
I5
sI8
I5
sI96
I4
sI42
I1
sI23
I5
sI79
I4
sI50
I5
sI83
I3
sI87
I4
sI56
I5
sI89
I5
sI91
I5
ssI97
(dp88
I32
I5
sI97
I5
sI98
I4
sI1
I4
sI69
I5
sI7
I5
sI96
I5
sI82
I4
sI79
I5
sI50
I5
sI83
I1
sI23
I5
sI89
I5
sI28
I5
ssI98
(dp89
I88
I3
sI25
I5
sI70
I3
sI47
I4
ssI99
(dp90
I64
I5
sI1
I4
sI66
I3
sI3
I3
sI4
I5
sI69
I4
sI7
I4
sI92
I4
sI11
I5
sI12
I5
sI98
I5
sI79
I4
sI50
I5
sI22
I5
sI56
I5
sI25
I3
sI28
I3
ssI101
(dp91
I24
I4
sI1
I3
sI50
I4
sI7
I3
ssI102
(dp92
I1
I3
sI2
I2
sI4
I2
sI5
I3
sI7
I2
sI11
I3
sI13
I3
sI29
I1
sI38
I2
sI47
I2
sI49
I2
sI50
I4
sI53
I2
sI55
I3
sI56
I3
sI62
I3
sI66
I3
sI67
I1
sI68
I2
sI70
I3
sI72
I3
sI73
I3
sI79
I2
sI82
I2
sI83
I3
sI88
I3
sI89
I4
sI91
I3
sI94
I2
sI95
I4
sI96
I3
sI98
I4
sI99
I2
ssI103
(dp93
I96
I4
sI98
I3
sI69
I3
sI56
I5
sI50
I5
sI24
I4
ssI104
(dp94
I3
I3
sI7
I3
sI9
I2
sI10
I2
sI13
I3
sI15
I5
sI50
I5
sI25
I3
ssI106
(dp95
I64
I4
sI97
I5
sI45
I3
sI69
I4
sI70
I3
sI1
I4
sI8
I4
sI9
I4
sI12
I4
sI77
I4
sI14
I4
sI15
I3
sI48
I3
sI82
I3
sI86
I3
sI88
I3
sI25
I4
sI22
I4
sI59
I4
sI28
I4
ssI108
(dp96
I1
I4
sI7
I5
sI10
I5
sI13
I3
sI14
I5
sI50
I4
sI21
I3
ssI109
(dp97
I1
I4
sI4
I2
sI5
I3
sI7
I4
sI8
I3
sI9
I3
sI11
I4
sI12
I4
sI15
I4
sI17
I4
sI22
I4
sI25
I4
sI28
I3
sI29
I3
sI31
I4
sI42
I1
sI50
I5
sI53
I4
sI54
I3
sI55
I2
sI56
I5
sI58
I4
sI62
I3
sI63
I3
sI64
I2
sI67
I5
sI68
I3
sI69
I4
sI70
I4
sI71
I4
sI72
I5
sI77
I4
sI79
I5
sI81
I2
sI82
I5
sI88
I4
sI89
I4
sI90
I3
sI91
I4
sI94
I4
sI95
I4
sI96
I5
sI97
I3
sI98
I4
ssI110
(dp98
I2
I3
sI11
I4
sI12
I4
sI22
I4
sI28
I4
sI29
I3
sI31
I3
sI33
I4
sI38
I3
sI41
I4
sI43
I3
sI54
I4
sI55
I3
sI56
I1
sI63
I3
sI64
I4
sI67
I3
sI68
I2
sI69
I4
sI77
I4
sI79
I4
sI82
I4
sI88
I4
sI94
I4
sI96
I4
ssI113
(dp99
I9
I3
sI50
I5
sI7
I3
ssI114
(dp100
I96
I3
sI89
I5
sI98
I4
sI56
I3
ssI115
(dp101
I4
I4
sI7
I5
sI8
I5
sI9
I5
sI11
I4
sI12
I5
sI13
I5
sI20
I3
sI22
I3
sI23
I5
sI32
I5
sI33
I4
sI48
I5
sI50
I5
sI56
I5
sI69
I1
sI77
I2
sI79
I4
sI82
I4
sI83
I3
sI89
I5
sI92
I4
sI93
I3
sI96
I3
sI98
I3
ssI116
(dp102
I65
I2
sI7
I2
sI11
I5
sI47
I3
sI50
I3
sI20
I3
sI56
I5
ssI117
(dp103
I96
I5
sI1
I4
sI98
I4
sI11
I5
sI33
I4
sI7
I3
sI12
I5
sI15
I5
sI50
I5
sI56
I5
sI25
I4
ssI118
(dp104
I32
I5
sI98
I5
sI5
I2
sI7
I5
sI55
I5
sI79
I5
sI17
I3
sI53
I5
sI22
I5
sI23
I5
sI56
I5
ssI119
(dp105
I7
I5
sI9
I4
sI11
I5
sI12
I3
sI22
I4
sI23
I3
sI24
I4
sI25
I5
sI28
I5
sI31
I5
sI40
I4
sI50
I5
sI52
I3
sI54
I4
sI56
I4
sI64
I4
sI70
I3
sI82
I2
sI83
I4
sI86
I4
sI87
I5
sI89
I4
sI93
I4
sI96
I5
ssI120
(dp106
I25
I5
sI50
I4
sI15
I4
sI1
I4
sI9
I4
ssI121
(dp107
I1
I4
sI98
I5
sI9
I5
sI11
I2
sI12
I5
sI14
I5
sI50
I5
sI83
I4
sI86
I5
sI25
I5
sI57
I5
ssI122
(dp108
I69
I2
sI70
I5
sI11
I1
sI46
I5
sI83
I5
sI86
I5
sI57
I2
sI28
I4
ssI123
(dp109
I64
I3
sI98
I4
sI9
I5
sI13
I3
sI14
I5
sI50
I3
sI22
I4
sI23
I4
ssI124
(dp110
I96
I4
sI1
I3
sI98
I4
sI7
I4
sI11
I5
sI79
I3
sI50
I3
sI28
I3
ssI125
(dp111
I1
I4
sI8
I4
sI21
I3
sI22
I5
sI25
I1
sI28
I4
sI41
I2
sI49
I3
sI50
I5
sI56
I1
sI63
I3
sI64
I5
sI66
I5
sI67
I5
sI69
I4
sI70
I3
sI72
I4
sI73
I5
sI79
I5
sI80
I4
sI82
I5
sI83
I4
sI85
I3
sI87
I5
sI88
I5
sI90
I5
sI94
I5
sI95
I5
sI97
I3
sI98
I5
ssI127
(dp112
I50
I4
sI62
I5
ssI128
(dp113
I1
I4
sI14
I5
sI15
I4
sI25
I3
sI26
I4
sI28
I5
sI48
I4
sI50
I4
sI54
I2
sI56
I3
sI58
I3
sI64
I5
sI65
I4
sI66
I3
sI69
I4
sI70
I3
sI71
I4
sI73
I3
sI77
I3
sI79
I4
sI82
I5
sI83
I5
sI86
I5
sI88
I4
sI97
I3
sI98
I4
sI99
I4
ssI130
(dp114
I1
I5
sI2
I4
sI3
I5
sI4
I2
sI5
I4
sI7
I5
sI11
I5
sI12
I4
sI17
I5
sI22
I5
sI24
I5
sI27
I4
sI28
I4
sI29
I3
sI31
I4
sI33
I5
sI38
I4
sI39
I4
sI41
I3
sI42
I4
sI44
I4
sI47
I3
sI49
I4
sI50
I5
sI53
I3
sI54
I5
sI55
I5
sI56
I5
sI58
I2
sI62
I4
sI63
I4
sI64
I5
sI65
I4
sI66
I5
sI67
I4
sI68
I5
sI69
I5
sI71
I5
sI77
I5
sI79
I5
sI82
I5
sI84
I4
sI88
I2
sI89
I4
sI90
I4
sI93
I5
sI94
I5
sI95
I5
sI96
I5
sI98
I5
sI99
I5
ssI131
(dp115
I1
I4
sI19
I4
sI14
I5
sI9
I5
ssI132
(dp116
I56
I5
sI50
I3
sI12
I4
ssI134
(dp117
I1
I5
sI15
I5
ssI135
(dp118
I33
I3
sI98
I5
sI5
I3
sI38
I3
sI39
I3
sI55
I4
sI12
I4
sI77
I4
sI79
I3
sI54
I3
sI23
I4
sI56
I4
ssI136
(dp119
I9
I5
sI42
I3
sI14
I5
sI15
I4
sI19
I4
sI56
I4
sI89
I4
ssI137
(dp120
I96
I5
sI1
I3
sI15
I4
sI50
I5
sI51
I1
sI55
I5
sI89
I5
sI79
I5
ssI138
(dp121
I1
I4
sI98
I5
sI45
I5
sI12
I5
sI13
I4
sI14
I3
sI15
I4
sI56
I5
sI26
I5
ssI141
(dp122
I1
I3
sI50
I4
sI15
I5
sI25
I5
sI7
I5
ssI142
(dp123
I7
I4
sI42
I4
sI82
I4
sI55
I2
sI89
I3
sI91
I5
sI28
I4
ssI144
(dp124
I1
I4
sI4
I4
sI7
I2
sI8
I4
sI9
I5
sI12
I4
sI14
I4
sI15
I4
sI19
I4
sI20
I4
sI22
I5
sI24
I4
sI31
I3
sI32
I4
sI33
I5
sI48
I5
sI50
I5
sI54
I2
sI55
I4
sI56
I4
sI58
I3
sI59
I4
sI61
I3
sI62
I2
sI64
I5
sI65
I4
sI66
I4
sI68
I2
sI69
I5
sI70
I4
sI72
I4
sI73
I3
sI87
I5
sI89
I3
sI91
I2
sI93
I1
sI96
I5
sI98
I4
ssI145
(dp125
I1
I3
sI3
I3
sI5
I3
sI7
I5
sI9
I2
sI11
I5
sI12
I5
sI13
I5
sI15
I2
sI17
I3
sI22
I5
sI23
I4
sI25
I2
sI31
I5
sI38
I3
sI39
I4
sI42
I5
sI44
I5
sI49
I3
sI50
I5
sI51
I3
sI53
I2
sI54
I5
sI55
I3
sI56
I5
sI59
I1
sI62
I2
sI64
I4
sI66
I4
sI69
I5
sI77
I3
sI79
I5
sI88
I5
sI89
I4
sI96
I5
sI97
I5
sI98
I5
ssI148
(dp126
I1
I4
sI98
I3
sI69
I5
sI70
I5
sI7
I5
sI8
I4
sI71
I5
sI78
I1
sI50
I5
sI56
I5
sI89
I5
ssI150
(dp127
I1
I4
sI50
I5
sI13
I4
sI14
I4
sI93
I4
ssI151
(dp128
I1
I5
sI4
I5
sI7
I4
sI9
I4
sI10
I5
sI12
I5
sI13
I3
sI14
I5
sI15
I4
sI25
I4
sI26
I3
sI28
I4
sI31
I3
sI33
I5
sI44
I4
sI47
I3
sI49
I3
sI50
I5
sI51
I4
sI52
I5
sI56
I4
sI58
I4
sI64
I5
sI65
I4
sI66
I4
sI69
I4
sI70
I4
sI73
I4
sI79
I4
sI81
I5
sI82
I3
sI83
I5
sI86
I5
sI87
I4
sI88
I5
sI89
I5
sI91
I2
sI93
I5
sI97
I5
sI98
I4
ssI152
(dp129
I97
I5
sI98
I2
sI67
I5
sI69
I5
sI71
I5
sI8
I5
sI66
I5
sI15
I5
sI80
I5
sI49
I5
sI51
I4
sI21
I3
sI22
I5
sI88
I5
sI25
I3
sI33
I5
ssI153
(dp130
I64
I5
sI56
I5
sI50
I1
sI22
I2
sI79
I5
ssI154
(dp131
I89
I5
sI50
I5
sI61
I4
ssI156
(dp132
I64
I3
sI86
I4
sI9
I4
sI11
I2
sI12
I3
sI77
I2
sI48
I4
sI83
I3
sI22
I3
sI58
I4
ssI157
(dp133
I25
I3
sI50
I4
sI3
I3
sI93
I3
sI1
I5
ssI158
(dp134
I1
I4
sI4
I4
sI7
I5
sI8
I5
sI10
I4
sI11
I4
sI20
I4
sI22
I5
sI24
I4
sI29
I3
sI38
I4
sI39
I5
sI42
I3
sI50
I4
sI53
I1
sI55
I4
sI56
I5
sI62
I5
sI68
I3
sI70
I4
sI72
I3
sI79
I4
sI82
I5
sI83
I5
sI85
I4
sI89
I5
sI92
I4
sI96
I4
ssI159
(dp135
I96
I4
sI67
I1
sI7
I5
sI72
I3
sI9
I3
sI15
I5
sI24
I5
sI25
I5
ssI160
(dp136
I32
I5
sI1
I4
sI61
I4
sI3
I3
sI4
I4
sI7
I3
sI9
I3
sI11
I4
sI13
I4
sI79
I4
sI24
I5
sI50
I4
sI21
I1
sI59
I4
sI23
I5
sI56
I5
sI55
I4
sI15
I2
sI93
I5
ssI161
(dp137
I98
I4
sI69
I4
sI70
I3
sI14
I4
sI15
I2
sI48
I1
sI50
I2
sI22
I2
sI56
I3
ssI162
(dp138
I1
I4
sI7
I3
sI42
I3
sI11
I4
sI79
I4
sI50
I5
sI55
I3
sI25
I4
sI28
I4
ssI163
(dp139
I56
I4
sI64
I4
sI98
I4
sI28
I3
sI97
I4
ssI164
(dp140
I9
I4
ssI165
(dp141
I91
I4
sI69
I3
sI15
I5
ssI167
(dp142
I96
I5
sI99
I4
sI8
I5
sI73
I2
sI48
I1
sI83
I5
sI86
I4
ssI168
(dp143
I25
I5
sI15
I5
sI9
I1
sI1
I5
sI7
I1
ssI169
(dp144
I50
I5
ssI172
(dp145
I23
I3
ssI174
(dp146
I1
I3
sI9
I5
sI11
I5
sI12
I5
sI13
I3
sI14
I5
sI15
I5
sI21
I1
sI28
I5
sI29
I2
sI31
I4
sI40
I4
sI41
I1
sI49
I4
sI50
I4
sI56
I5
sI63
I4
sI65
I5
sI66
I5
sI67
I1
sI69
I5
sI70
I5
sI80
I1
sI82
I1
sI87
I5
sI88
I5
sI94
I2
sI98
I5
sI99
I3
ssI175
(dp147
I96
I3
sI64
I5
sI98
I5
sI71
I4
sI9
I4
sI11
I5
sI12
I4
sI88
I4
sI50
I5
sI56
I2
sI31
I4
ssI176
(dp148
I25
I3
sI50
I5
sI13
I4
sI93
I5
sI7
I5
ssI177
(dp149
I64
I4
sI1
I3
sI98
I5
sI59
I4
sI69
I1
sI7
I4
sI60
I4
sI42
I4
sI23
I5
sI12
I5
sI96
I3
sI79
I4
sI11
I4
sI50
I5
sI22
I4
sI87
I4
sI56
I5
sI89
I5
sI47
I3
sI92
I4
sI55
I3
ssI178
(dp150
I1
I4
sI2
I4
sI7
I4
sI8
I4
sI9
I2
sI11
I5
sI12
I5
sI15
I5
sI16
I4
sI22
I5
sI24
I3
sI25
I3
sI28
I5
sI31
I4
sI38
I3
sI39
I2
sI50
I5
sI51
I4
sI55
I4
sI56
I4
sI58
I5
sI62
I4
sI64
I5
sI66
I4
sI69
I5
sI70
I4
sI71
I4
sI73
I5
sI76
I3
sI77
I4
sI79
I4
sI82
I5
sI83
I4
sI87
I4
sI89
I4
sI90
I3
sI92
I3
sI95
I5
sI96
I4
sI97
I5
sI98
I5
sI99
I4
ssI180
(dp151
I98
I5
sI67
I1
sI68
I5
sI69
I4
sI40
I4
sI12
I2
sI79
I3
sI83
I5
sI53
I5
sI56
I5
sI28
I3
ssI181
(dp152
I1
I3
sI3
I2
sI6
I1
sI7
I4
sI9
I4
sI10
I2
sI13
I2
sI14
I1
sI15
I3
sI16
I1
sI18
I1
sI19
I1
sI20
I1
sI21
I1
sI24
I1
sI25
I5
sI93
I1
ssI182
(dp153
I48
I3
sI1
I4
sI50
I5
sI69
I5
sI15
I4
ssI183
(dp154
I96
I3
sI77
I3
sI50
I2
sI94
I3
sI54
I2
sI55
I4
sI88
I3
sI62
I2
ssI184
(dp155
I1
I4
sI7
I3
sI9
I5
sI11
I3
sI13
I3
sI14
I4
sI15
I3
sI20
I4
sI22
I3
sI25
I4
sI29
I3
sI34
I2
sI36
I3
sI40
I4
sI44
I4
sI47
I4
sI50
I4
sI51
I4
sI52
I4
sI56
I3
sI57
I5
sI58
I4
sI64
I4
sI65
I4
sI66
I4
sI67
I3
sI69
I3
sI70
I4
sI71
I4
sI72
I3
sI77
I3
sI79
I3
sI82
I3
sI86
I5
sI88
I3
sI89
I4
sI91
I3
sI92
I3
sI93
I4
sI95
I4
sI97
I2
sI98
I4
ssI185
(dp156
I9
I4
sI15
I3
sI50
I4
sI86
I5
sI23
I4
sI25
I4
sI47
I4
sI28
I5
ssI186
(dp157
I98
I5
sI38
I5
sI71
I5
sI12
I1
sI44
I5
sI77
I5
sI79
I5
sI53
I1
sI55
I4
sI56
I3
sI31
I4
sI95
I3
ssI187
(dp158
I64
I5
sI97
I3
sI69
I4
sI70
I4
sI65
I5
sI8
I5
sI83
I5
sI52
I4
sI86
I4
sI23
I4
sI28
I4
ssI188
(dp159
I96
I5
sI97
I5
sI98
I5
sI66
I3
sI69
I4
sI38
I3
sI7
I5
sI64
I5
sI11
I5
sI76
I4
sI13
I4
sI77
I4
sI56
I4
sI50
I4
sI54
I4
sI88
I4
sI22
I5
sI79
I5
sI28
I3
sI5
I4
ssI189
(dp160
I1
I5
sI4
I5
sI7
I3
sI8
I5
sI9
I3
sI10
I5
sI13
I4
sI14
I5
sI15
I2
sI16
I3
sI20
I5
sI21
I2
sI24
I4
sI28
I4
sI30
I4
sI31
I3
sI44
I4
sI45
I3
sI50
I5
sI56
I5
sI59
I3
sI60
I3
sI61
I3
sI79
I3
sI83
I4
sI89
I5
sI91
I3
sI96
I5
sI97
I4
sI99
I5
ssI190
(dp161
I24
I3
sI9
I1
sI7
I4
sI15
I4
ssI191
(dp162
I86
I5
ssI192
(dp163
I25
I4
sI50
I4
sI9
I5
sI7
I4
ssI193
(dp164
I96
I1
sI33
I3
sI2
I3
sI69
I5
sI38
I3
sI1
I4
sI72
I2
sI73
I3
sI79
I4
sI24
I2
sI82
I2
sI23
I4
sI56
I1
sI25
I4
sI29
I3
sI94
I3
ssI194
(dp165
I1
I4
sI4
I4
sI7
I3
sI8
I3
sI9
I4
sI12
I5
sI13
I4
sI15
I4
sI22
I5
sI23
I4
sI25
I2
sI26
I3
sI28
I5
sI29
I2
sI30
I3
sI31
I3
sI44
I4
sI50
I3
sI51
I4
sI52
I4
sI54
I3
sI56
I5
sI58
I4
sI62
I2
sI64
I5
sI66
I3
sI67
I1
sI69
I4
sI70
I3
sI71
I4
sI72
I3
sI73
I3
sI76
I2
sI77
I3
sI78
I1
sI79
I3
sI81
I2
sI82
I2
sI83
I3
sI86
I3
sI87
I4
sI88
I3
sI89
I3
sI90
I3
sI91
I3
sI94
I3
sI95
I3
sI97
I3
sI98
I4
sI99
I3
ssI195
(dp166
I67
I2
sI93
I3
sI46
I3
sI47
I5
sI99
I3
sI14
I4
sI55
I4
sI59
I3
sI60
I3
sI61
I3
ssI196
(dp167
I66
I3
sI67
I5
sI70
I3
sI8
I5
sI13
I2
sI25
I4
sI94
I3
ssI197
(dp168
I96
I5
sI33
I2
sI2
I3
sI68
I2
sI38
I3
sI39
I2
sI11
I1
sI50
I5
sI79
I5
sI82
I5
sI4
I3
sI22
I5
sI55
I3
sI56
I1
sI89
I5
sI92
I1
sI29
I3
sI62
I2
ssI198
(dp169
I1
I4
sI4
I3
sI6
I2
sI7
I4
sI11
I4
sI15
I3
sI23
I4
sI24
I2
sI25
I2
sI27
I2
sI31
I3
sI33
I3
sI50
I5
sI51
I3
sI55
I3
sI56
I5
sI58
I3
sI64
I4
sI65
I2
sI69
I4
sI70
I3
sI71
I3
sI73
I3
sI79
I3
sI81
I5
sI82
I3
sI89
I5
sI93
I3
sI95
I3
sI96
I4
sI97
I3
sI98
I4
ssI199
(dp170
I1
I1
sI9
I5
sI93
I4
sI14
I4
sI7
I4
ssI200
(dp171
I1
I5
sI2
I4
sI7
I4
sI8
I4
sI9
I4
sI11
I5
sI15
I4
sI22
I4
sI24
I2
sI25
I4
sI28
I5
sI29
I4
sI33
I4
sI38
I3
sI43
I3
sI45
I3
sI48
I2
sI50
I5
sI54
I4
sI56
I4
sI58
I4
sI62
I5
sI63
I4
sI68
I5
sI69
I5
sI71
I4
sI72
I4
sI79
I5
sI82
I5
sI88
I4
sI89
I5
sI91
I4
sI94
I4
sI95
I5
sI96
I5
sI98
I5
sI99
I5
ssI201
(dp172
I1
I3
sI2
I2
sI4
I4
sI7
I3
sI8
I3
sI9
I3
sI10
I3
sI11
I4
sI12
I4
sI15
I3
sI17
I3
sI20
I2
sI22
I2
sI23
I4
sI25
I3
sI26
I4
sI27
I3
sI28
I3
sI29
I3
sI31
I1
sI32
I3
sI33
I4
sI36
I1
sI37
I2
sI39
I1
sI42
I4
sI45
I2
sI46
I4
sI47
I4
sI48
I3
sI50
I4
sI51
I2
sI53
I3
sI55
I4
sI56
I5
sI57
I4
sI58
I4
sI59
I4
sI61
I2
sI62
I1
sI64
I3
sI65
I4
sI68
I2
sI69
I2
sI70
I3
sI71
I3
sI76
I4
sI77
I2
sI79
I4
sI81
I1
sI82
I4
sI86
I4
sI87
I3
sI89
I3
sI92
I3
sI93
I5
sI95
I3
sI96
I4
sI97
I2
sI98
I4
sI99
I3
ssI202
(dp173
I96
I4
sI1
I3
ssI203
(dp174
I24
I4
sI1
I3
sI50
I5
sI93
I4
sI7
I3
ssI204
(dp175
I1
I2
sI12
I4
sI45
I5
sI9
I5
ssI207
(dp176
I2
I3
sI3
I2
sI4
I4
sI5
I3
sI8
I3
sI9
I4
sI11
I3
sI12
I3
sI13
I3
sI14
I4
sI15
I4
sI18
I2
sI22
I3
sI23
I4
sI25
I4
sI28
I4
sI33
I2
sI38
I3
sI42
I4
sI45
I3
sI53
I1
sI55
I3
sI56
I4
sI58
I3
sI59
I4
sI60
I3
sI64
I5
sI65
I3
sI68
I2
sI69
I4
sI70
I3
sI73
I3
sI79
I4
sI82
I3
sI87
I4
sI88
I2
sI92
I2
sI96
I3
sI98
I4
ssI208
(dp177
I97
I4
sI66
I4
sI70
I3
sI56
I2
sI86
I2
sI88
I5
ssI209
(dp178
I16
I4
sI1
I5
sI50
I5
sI14
I3
sI9
I3
ssI210
(dp179
I1
I5
sI4
I4
sI15
I4
sI23
I5
sI25
I4
sI28
I4
sI40
I3
sI44
I3
sI49
I3
sI50
I5
sI56
I5
sI58
I4
sI65
I4
sI69
I4
sI70
I4
sI72
I3
sI73
I5
sI79
I4
sI88
I4
sI94
I4
sI96
I4
sI97
I5
sI98
I5
sI99
I4
ssI211
(dp180
I64
I3
sI9
I3
sI69
I3
ssI212
(dp181
I86
I4
sI87
I5
ssI213
(dp182
I64
I5
sI1
I2
sI2
I4
sI69
I3
sI70
I3
sI97
I5
sI8
I3
sI42
I5
sI11
I4
sI12
I5
sI13
I4
sI79
I5
sI48
I5
sI56
I5
sI50
I5
sI55
I5
sI24
I5
sI25
I4
sI98
I5
sI7
I4
sI31
I4
ssI214
(dp183
I7
I5
sI8
I4
sI11
I5
sI12
I5
sI13
I3
sI20
I4
sI22
I3
sI23
I5
sI24
I3
sI32
I4
sI39
I4
sI42
I5
sI45
I4
sI50
I3
sI55
I4
sI56
I5
sI64
I5
sI69
I2
sI79
I4
sI89
I4
sI92
I4
sI93
I4
sI98
I4
ssI215
(dp184
I64
I4
sI98
I5
sI99
I4
sI54
I4
sI70
I3
sI8
I2
sI11
I2
sI50
I5
sI77
I3
sI15
I3
sI88
I3
sI82
I3
sI22
I3
sI23
I3
sI56
I5
sI89
I4
sI87
I5
sI28
I4
ssI216
(dp185
I1
I4
sI3
I4
sI4
I5
sI7
I5
sI9
I4
sI11
I5
sI12
I5
sI15
I3
sI22
I5
sI25
I3
sI27
I3
sI28
I4
sI42
I5
sI47
I4
sI50
I4
sI55
I5
sI56
I5
sI58
I4
sI64
I5
sI65
I4
sI66
I2
sI67
I3
sI69
I5
sI72
I2
sI79
I4
sI81
I4
sI82
I4
sI91
I4
sI93
I4
sI95
I3
sI97
I4
sI98
I5
ssI217
(dp186
I96
I4
sI33
I4
sI2
I3
sI68
I3
sI38
I3
sI7
I4
sI11
I4
sI50
I1
sI79
I5
sI17
I3
sI82
I5
sI53
I1
sI22
I5
sI56
I5
sI27
I1
sI29
I2
sI62
I2
ssI218
(dp187
I33
I4
sI98
I5
sI4
I3
sI5
I3
sI39
I2
sI8
I3
sI42
I4
sI23
I4
sI12
I5
sI47
I4
sI55
I4
sI56
I3
ssI219
(dp188
I82
I1
sI4
I4
sI13
I1
sI38
I1
sI71
I1
ssI221
(dp189
I3
I4
sI4
I3
sI7
I4
sI12
I5
sI17
I4
sI23
I4
sI24
I5
sI27
I4
sI29
I3
sI32
I4
sI33
I4
sI38
I2
sI39
I4
sI42
I5
sI48
I5
sI50
I4
sI53
I4
sI55
I4
sI56
I5
sI59
I2
sI64
I5
sI69
I4
sI70
I3
sI76
I4
sI79
I4
sI92
I4
sI94
I3
sI96
I5
ssI222
(dp190
I1
I4
sI2
I3
sI4
I3
sI7
I5
sI8
I1
sI9
I5
sI11
I5
sI12
I5
sI15
I3
sI17
I2
sI22
I5
sI24
I3
sI25
I3
sI26
I3
sI28
I5
sI29
I3
sI31
I5
sI35
I1
sI38
I2
sI40
I1
sI41
I3
sI44
I3
sI48
I5
sI49
I3
sI50
I4
sI51
I3
sI53
I5
sI54
I4
sI56
I5
sI58
I3
sI62
I4
sI63
I3
sI64
I5
sI66
I4
sI67
I4
sI68
I4
sI69
I5
sI70
I3
sI71
I4
sI72
I4
sI73
I4
sI77
I4
sI78
I1
sI79
I5
sI80
I2
sI81
I1
sI82
I4
sI87
I3
sI88
I4
sI89
I5
sI90
I2
sI91
I2
sI92
I3
sI93
I2
sI94
I3
sI95
I4
sI96
I5
sI97
I4
sI98
I4
sI99
I3
ssI223
(dp191
I1
I4
sI69
I5
sI71
I5
sI8
I2
sI11
I3
sI22
I5
sI25
I1
sI28
I4
sI95
I5
ssI224
(dp192
I97
I5
sI11
I3
sI69
I4
sI70
I2
sI28
I4
sI43
I3
sI77
I4
sI15
I4
sI92
I1
sI51
I4
sI20
I1
sI22
I5
sI26
I3
sI54
I3
sI86
I3
sI29
I3
ssI225
(dp193
I64
I4
sI98
I5
sI22
I5
ssI226
(dp194
I97
I3
sI98
I5
sI69
I4
sI7
I4
sI9
I5
sI23
I3
sI12
I5
sI14
I5
sI92
I2
sI24
I4
sI89
I5
sI56
I4
sI25
I4
sI28
I4
ssI227
(dp195
I7
I5
sI9
I3
sI13
I5
sI14
I4
sI15
I4
sI50
I4
sI19
I4
sI25
I4
sI93
I5
ssI228
(dp196
I56
I2
sI98
I3
sI87
I1
ssI230
(dp197
I1
I5
sI7
I3
sI8
I5
sI10
I3
sI11
I4
sI22
I5
sI25
I3
sI28
I5
sI50
I5
sI51
I4
sI56
I3
sI64
I5
sI69
I4
sI70
I4
sI71
I5
sI79
I5
sI82
I5
sI91
I3
sI95
I5
sI96
I2
sI97
I5
sI98
I5
sI99
I3
ssI231
(dp198
I1
I3
sI50
I4
sI15
I4
ssI232
(dp199
I64
I4
sI1
I4
sI98
I4
sI4
I4
sI69
I3
sI32
I4
sI8
I2
sI96
I5
sI76
I3
sI14
I4
sI44
I4
sI48
I5
sI81
I5
sI50
I4
sI52
I5
sI22
I3
sI56
I5
sI91
I5
ssI233
(dp200
I4
I3
sI8
I3
sI9
I5
sI12
I2
sI14
I4
sI23
I5
sI31
I3
sI47
I5
sI48
I5
sI50
I3
sI56
I5
sI57
I5
sI58
I3
sI64
I5
sI69
I5
sI70
I5
sI71
I5
sI82
I4
sI89
I3
sI91
I3
sI95
I5
sI97
I5
sI98
I5
sI99
I3
ssI234
(dp201
I1
I3
sI2
I2
sI4
I4
sI5
I3
sI7
I2
sI8
I5
sI9
I3
sI10
I3
sI11
I2
sI12
I1
sI13
I3
sI14
I3
sI15
I3
sI16
I2
sI20
I4
sI21
I3
sI22
I4
sI23
I4
sI25
I3
sI28
I4
sI30
I4
sI31
I4
sI32
I3
sI40
I2
sI44
I3
sI45
I4
sI47
I2
sI48
I2
sI50
I4
sI52
I4
sI54
I2
sI56
I3
sI64
I4
sI66
I3
sI69
I4
sI70
I3
sI71
I3
sI72
I3
sI73
I2
sI76
I2
sI77
I3
sI79
I3
sI81
I3
sI82
I3
sI85
I2
sI86
I2
sI87
I3
sI88
I3
sI89
I3
sI91
I5
sI93
I3
sI95
I3
sI96
I2
sI97
I2
sI98
I4
sI99
I5
ssI235
(dp202
I96
I4
sI65
I2
sI66
I2
sI1
I4
sI69
I4
sI70
I5
sI7
I4
sI82
I2
sI79
I4
sI50
I5
sI83
I4
sI52
I4
sI85
I4
sI22
I4
sI87
I4
sI86
I4
ssI236
(dp203
I64
I5
sI97
I5
sI66
I2
sI69
I5
sI71
I3
sI9
I5
sI98
I5
sI15
I5
sI88
I2
sI50
I3
sI51
I5
sI56
I5
sI57
I5
sI58
I2
sI79
I4
sI28
I4
ssI237
(dp204
I64
I5
sI98
I4
sI9
I4
sI83
I4
sI23
I4
sI58
I4
sI28
I4
ssI239
(dp205
I8
I5
sI9
I5
sI10
I5
sI12
I5
sI14
I5
sI39
I5
sI42
I5
sI45
I5
sI46
I4
sI47
I2
sI50
I5
sI56
I4
sI58
I5
sI64
I1
sI65
I5
sI69
I1
sI79
I3
sI81
I3
sI89
I4
sI91
I4
sI96
I5
sI98
I5
ssI242
(dp206
I1
I4
ssI243
(dp207
I1
I4
sI77
I3
sI69
I3
sI7
I3
sI8
I5
sI10
I4
sI13
I4
sI14
I3
sI15
I3
sI16
I3
sI26
I3
sI83
I4
sI86
I5
sI25
I3
sI22
I3
sI28
I4
sI93
I2
ssI244
(dp208
I1
I4
sI3
I5
sI7
I4
sI9
I5
sI13
I4
sI17
I2
sI20
I4
sI22
I4
sI26
I5
sI28
I4
sI31
I4
sI32
I2
sI40
I2
sI42
I5
sI50
I5
sI51
I2
sI52
I4
sI53
I3
sI54
I2
sI56
I5
sI58
I3
sI62
I2
sI64
I5
sI65
I4
sI66
I4
sI67
I4
sI68
I5
sI69
I4
sI70
I4
sI71
I4
sI72
I4
sI77
I4
sI80
I3
sI82
I3
sI86
I4
sI88
I4
sI89
I5
sI90
I4
sI92
I4
sI95
I4
sI97
I2
ssI245
(dp209
I50
I4
sI21
I3
sI94
I2
ssI246
(dp210
I1
I4
sI3
I2
sI8
I3
sI11
I4
sI12
I5
sI17
I2
sI24
I4
sI25
I3
sI29
I1
sI38
I2
sI41
I2
sI50
I5
sI55
I4
sI56
I1
sI66
I3
sI67
I2
sI68
I5
sI69
I3
sI77
I2
sI80
I2
sI81
I5
sI82
I2
sI83
I4
sI92
I1
sI94
I2
sI95
I3
sI96
I3
sI97
I3
sI98
I4
sI99
I3
ssI247
(dp211
I64
I5
sI1
I4
sI70
I5
sI7
I4
sI50
I5
sI58
I4
sI28
I5
ssI248
(dp212
I96
I4
sI64
I5
sI98
I5
sI1
I3
sI69
I1
sI7
I2
sI11
I5
sI79
I3
sI50
I5
sI22
I2
sI55
I4
sI89
I5
ssI249
(dp213
I1
I4
sI2
I3
sI4
I4
sI7
I5
sI9
I5
sI11
I5
sI12
I5
sI13
I4
sI22
I5
sI23
I4
sI24
I4
sI28
I4
sI31
I4
sI39
I4
sI42
I5
sI50
I4
sI53
I4
sI55
I5
sI56
I5
sI58
I5
sI64
I5
sI68
I5
sI69
I5
sI79
I5
sI83
I5
sI86
I4
sI88
I4
sI89
I5
sI92
I5
sI93
I4
sI96
I4
sI98
I5
ssI250
(dp214
I64
I5
sI1
I4
sI2
I4
sI28
I4
sI69
I5
sI7
I4
sI96
I2
sI71
I5
sI44
I4
sI98
I5
sI12
I5
sI81
I4
sI50
I5
sI9
I2
sI23
I4
sI56
I4
sI89
I4
sI91
I5
sI92
I5
sI55
I5
sI95
I5
ssI251
(dp215
I64
I5
sI33
I3
sI1
I4
sI7
I3
sI12
I4
sI45
I5
sI15
I4
sI50
I5
sI22
I5
sI55
I3
sI24
I3
sI25
I4
sI79
I5
sI60
I4
ssI252
(dp216
I9
I5
sI1
I5
sI14
I4
sI7
I4
ssI253
(dp217
I64
I5
sI97
I4
sI98
I5
sI4
I4
sI1
I5
sI8
I4
sI96
I5
sI12
I5
sI82
I3
sI79
I5
sI81
I4
sI50
I4
sI83
I4
sI22
I5
sI87
I5
sI56
I3
sI89
I4
sI15
I4
sI95
I4
ssI254
(dp218
I64
I4
sI97
I5
sI98
I4
sI35
I2
sI1
I3
sI69
I5
sI71
I3
sI8
I5
sI75
I1
sI82
I4
sI78
I3
sI15
I3
sI50
I5
sI99
I3
sI21
I3
sI22
I4
sI62
I3
sI90
I1
sI28
I4
sI29
I2
sI94
I3
ssI255
(dp219
I56
I5
sI98
I5
sI7
I2
sI53
I3
sI5
I2
ssI256
(dp220
I1
I5
sI2
I5
sI4
I5
sI5
I5
sI7
I4
sI9
I4
sI11
I5
sI12
I5
sI15
I5
sI21
I4
sI22
I5
sI25
I5
sI29
I4
sI31
I5
sI36
I3
sI38
I4
sI44
I4
sI49
I4
sI50
I4
sI51
I4
sI54
I5
sI56
I3
sI64
I5
sI66
I4
sI77
I3
sI79
I5
sI82
I5
sI86
I5
sI88
I5
sI89
I5
sI92
I1
sI96
I5
sI97
I4
sI98
I5
ssI257
(dp221
I70
I4
sI14
I5
sI50
I5
sI86
I4
sI57
I5
sI59
I5
sI60
I5
sI61
I5
ssI259
(dp222
I97
I4
sI98
I4
sI65
I3
sI39
I4
sI12
I5
sI15
I3
ssI262
(dp223
I1
I3
sI7
I4
sI11
I4
sI15
I3
sI22
I4
sI28
I3
sI40
I4
sI44
I2
sI47
I2
sI50
I2
sI52
I3
sI55
I3
sI56
I4
sI58
I3
sI64
I5
sI65
I4
sI66
I3
sI68
I2
sI69
I4
sI70
I4
sI71
I4
sI72
I3
sI77
I2
sI82
I3
sI86
I3
sI90
I4
sI91
I3
sI92
I3
sI95
I3
sI96
I4
sI98
I4
sI99
I3
ssI263
(dp224
I96
I4
sI97
I4
sI98
I4
sI99
I3
sI69
I5
sI1
I5
sI64
I5
sI23
I3
sI50
I5
sI79
I4
sI82
I4
sI86
I4
sI87
I4
sI22
I5
sI31
I4
sI28
I3
sI58
I4
sI95
I5
ssI264
(dp225
I33
I3
sI98
I5
sI4
I4
sI70
I4
sI7
I5
sI42
I5
sI12
I5
sI14
I4
sI47
I5
sI88
I3
sI19
I5
sI23
I5
sI56
I5
sI25
I4
sI26
I4
sI93
I5
ssI265
(dp226
I1
I5
sI50
I2
sI15
I3
sI7
I2
ssI266
(dp227
I25
I3
sI14
I4
sI9
I4
ssI267
(dp228
I2
I3
sI3
I4
sI5
I3
sI7
I5
sI12
I5
sI17
I4
sI22
I4
sI24
I5
sI28
I4
sI29
I3
sI31
I4
sI33
I5
sI47
I5
sI50
I5
sI53
I4
sI54
I3
sI55
I4
sI56
I5
sI62
I3
sI64
I5
sI65
I4
sI67
I3
sI68
I4
sI69
I4
sI77
I3
sI80
I4
sI81
I4
sI82
I4
sI88
I4
sI89
I5
sI92
I4
sI94
I3
sI98
I5
ssI268
(dp229
I1
I3
sI2
I2
sI3
I1
sI4
I4
sI7
I4
sI10
I4
sI11
I4
sI12
I4
sI13
I3
sI16
I3
sI17
I3
sI21
I3
sI24
I2
sI25
I3
sI27
I4
sI29
I1
sI31
I4
sI33
I3
sI37
I3
sI38
I1
sI39
I3
sI40
I3
sI42
I4
sI47
I1
sI50
I5
sI51
I3
sI52
I3
sI53
I3
sI55
I4
sI56
I4
sI59
I5
sI60
I5
sI61
I4
sI62
I3
sI63
I1
sI67
I3
sI68
I4
sI70
I3
sI71
I3
sI72
I3
sI73
I3
sI77
I2
sI79
I3
sI80
I3
sI82
I3
sI83
I4
sI88
I2
sI89
I4
sI91
I3
sI92
I4
sI94
I2
sI95
I4
sI96
I5
sI97
I4
sI98
I4
sI99
I3
ssI269
(dp230
I3
I3
sI5
I2
sI7
I3
sI8
I2
sI9
I4
sI11
I3
sI13
I4
sI15
I2
sI17
I2
sI22
I1
sI23
I5
sI42
I5
sI44
I3
sI47
I4
sI48
I5
sI50
I3
sI51
I2
sI52
I4
sI53
I1
sI55
I4
sI56
I5
sI58
I2
sI59
I4
sI63
I1
sI64
I4
sI65
I4
sI66
I1
sI68
I3
sI69
I1
sI70
I1
sI72
I2
sI76
I3
sI77
I1
sI81
I3
sI82
I2
sI88
I1
sI89
I2
sI93
I3
sI96
I1
sI98
I4
ssI270
(dp231
I97
I4
sI98
I5
sI93
I5
sI5
I5
sI70
I5
sI7
I4
sI66
I4
sI77
I2
sI13
I4
sI17
I2
sI50
I5
sI83
I4
sI53
I4
sI86
I4
sI56
I5
sI88
I5
sI25
I5
sI26
I5
sI79
I4
sI60
I5
sI90
I5
ssI271
(dp232
I1
I3
sI2
I1
sI4
I5
sI8
I4
sI9
I4
sI11
I4
sI12
I4
sI13
I4
sI15
I3
sI22
I5
sI25
I3
sI28
I5
sI31
I4
sI38
I2
sI40
I1
sI43
I3
sI44
I4
sI47
I3
sI48
I4
sI50
I5
sI51
I4
sI52
I4
sI54
I3
sI56
I3
sI58
I3
sI62
I2
sI64
I5
sI65
I3
sI69
I4
sI70
I5
sI73
I2
sI77
I4
sI79
I4
sI81
I3
sI83
I4
sI87
I3
sI88
I4
sI89
I3
sI95
I4
sI97
I5
sI98
I5
ssI272
(dp233
I96
I5
sI32
I4
sI98
I4
sI69
I4
sI8
I4
sI42
I4
sI11
I4
sI12
I5
sI79
I5
sI48
I4
sI50
I4
sI22
I5
sI23
I5
sI56
I5
ssI274
(dp234
I1
I4
sI98
I5
sI69
I5
sI71
I4
sI9
I5
sI15
I5
sI50
I5
sI83
I5
sI88
I4
sI25
I5
ssI275
(dp235
I96
I3
sI1
I4
sI98
I4
sI99
I3
sI69
I3
sI71
I3
sI50
I4
sI22
I3
sI89
I3
sI28
I4
sI62
I3
sI95
I3
ssI276
(dp236
I1
I5
sI2
I4
sI3
I3
sI4
I4
sI5
I3
sI7
I5
sI8
I4
sI9
I5
sI11
I5
sI12
I5
sI14
I4
sI17
I4
sI21
I3
sI22
I5
sI23
I5
sI24
I4
sI25
I4
sI27
I3
sI28
I4
sI29
I3
sI31
I4
sI33
I4
sI34
I2
sI38
I3
sI39
I3
sI40
I3
sI41
I3
sI42
I4
sI43
I1
sI44
I3
sI46
I3
sI47
I4
sI50
I5
sI51
I3
sI53
I4
sI54
I3
sI55
I4
sI56
I5
sI57
I3
sI58
I4
sI62
I2
sI63
I3
sI64
I5
sI65
I4
sI66
I3
sI67
I3
sI68
I4
sI69
I4
sI70
I4
sI71
I4
sI72
I4
sI73
I3
sI74
I3
sI76
I4
sI77
I3
sI78
I4
sI79
I4
sI80
I3
sI81
I4
sI82
I4
sI84
I2
sI85
I3
sI86
I3
sI88
I3
sI89
I5
sI91
I5
sI92
I4
sI94
I2
sI95
I5
sI96
I5
sI97
I3
sI98
I5
sI99
I4
ssI277
(dp237
I1
I4
sI7
I2
sI9
I4
sI15
I4
sI50
I3
sI24
I4
sI25
I4
sI93
I4
ssI278
(dp238
I98
I4
sI22
I5
ssI279
(dp239
I1
I3
sI2
I4
sI4
I4
sI7
I5
sI10
I4
sI12
I2
sI13
I3
sI16
I4
sI17
I4
sI21
I3
sI22
I1
sI24
I5
sI25
I5
sI27
I5
sI28
I2
sI29
I2
sI30
I2
sI31
I3
sI32
I3
sI33
I4
sI40
I4
sI41
I2
sI42
I4
sI44
I1
sI47
I4
sI50
I3
sI52
I3
sI56
I4
sI59
I4
sI60
I4
sI61
I4
sI62
I3
sI63
I3
sI64
I1
sI65
I1
sI66
I2
sI67
I4
sI68
I4
sI70
I1
sI71
I3
sI73
I4
sI79
I3
sI80
I4
sI81
I4
sI83
I5
sI87
I1
sI88
I1
sI89
I4
sI90
I3
sI92
I4
sI94
I3
sI95
I3
sI96
I4
sI99
I3
ssI280
(dp240
I1
I4
sI2
I3
sI3
I2
sI4
I3
sI5
I4
sI7
I4
sI8
I5
sI9
I5
sI11
I5
sI12
I5
sI13
I5
sI22
I5
sI29
I3
sI31
I4
sI33
I3
sI38
I3
sI40
I5
sI50
I3
sI53
I5
sI54
I2
sI56
I5
sI58
I4
sI62
I3
sI66
I5
sI67
I4
sI68
I3
sI69
I4
sI70
I4
sI71
I4
sI72
I4
sI73
I3
sI76
I2
sI77
I3
sI79
I4
sI80
I3
sI82
I2
sI86
I4
sI88
I3
sI90
I4
sI92
I3
sI94
I2
sI95
I5
sI96
I4
sI98
I5
sI99
I2
ssI283
(dp241
I70
I4
sI71
I4
sI42
I5
sI49
I4
sI50
I5
sI83
I4
sI21
I3
sI56
I5
sI24
I4
sI91
I5
sI95
I5
ssI285
(dp242
I64
I3
ssI286
(dp243
I1
I4
sI3
I2
sI4
I5
sI7
I4
sI11
I5
sI13
I2
sI14
I4
sI16
I3
sI17
I4
sI20
I4
sI22
I4
sI25
I3
sI29
I2
sI34
I5
sI40
I4
sI41
I2
sI42
I4
sI44
I3
sI47
I4
sI50
I4
sI53
I2
sI55
I4
sI56
I2
sI57
I5
sI66
I4
sI70
I5
sI72
I4
sI73
I5
sI77
I3
sI81
I3
sI82
I3
sI83
I5
sI85
I5
sI88
I4
sI89
I4
sI90
I4
sI91
I4
sI95
I5
sI96
I4
sI97
I4
sI99
I4
ssI287
(dp244
I64
I5
sI1
I5
sI98
I4
sI4
I4
sI39
I5
sI28
I5
sI11
I5
sI50
I5
sI9
I5
sI56
I5
sI92
I4
ssI288
(dp245
I64
I5
sI97
I4
sI98
I5
sI69
I5
sI12
I4
sI13
I5
sI15
I4
sI50
I4
sI22
I5
ssI289
(dp246
I24
I4
sI1
I3
sI15
I3
sI21
I1
sI7
I4
ssI290
(dp247
I1
I5
sI15
I4
sI21
I3
sI22
I5
sI28
I5
sI31
I4
sI43
I3
sI49
I3
sI50
I5
sI54
I3
sI62
I2
sI64
I4
sI66
I4
sI69
I4
sI71
I5
sI82
I4
sI88
I4
sI89
I3
sI91
I2
sI95
I4
sI97
I3
sI98
I4
sI99
I4
ssI291
(dp248
I1
I5
sI3
I3
sI4
I4
sI5
I5
sI7
I5
sI8
I4
sI9
I5
sI11
I4
sI12
I5
sI15
I5
sI17
I4
sI21
I2
sI22
I5
sI24
I5
sI27
I3
sI28
I4
sI31
I4
sI33
I4
sI38
I3
sI41
I4
sI46
I4
sI48
I5
sI49
I4
sI50
I5
sI53
I5
sI54
I4
sI55
I4
sI56
I5
sI64
I5
sI66
I4
sI67
I4
sI69
I5
sI70
I4
sI71
I4
sI72
I4
sI77
I4
sI79
I5
sI80
I4
sI82
I4
sI84
I3
sI85
I2
sI89
I3
sI90
I5
sI92
I4
sI93
I4
sI94
I2
sI95
I4
sI96
I4
sI97
I4
sI98
I5
sI99
I4
ssI292
(dp249
I96
I4
sI1
I4
sI98
I5
sI7
I3
sI64
I5
sI9
I4
sI10
I5
sI11
I5
sI2
I4
sI79
I5
sI48
I5
sI24
I4
sI50
I4
sI83
I5
sI20
I2
sI86
I4
sI56
I5
sI58
I5
sI28
I4
ssI293
(dp250
I1
I2
sI2
I3
sI3
I2
sI4
I4
sI5
I3
sI7
I3
sI8
I3
sI11
I3
sI12
I4
sI14
I3
sI15
I3
sI16
I2
sI17
I2
sI22
I3
sI23
I4
sI25
I3
sI26
I3
sI27
I3
sI28
I3
sI29
I1
sI31
I2
sI33
I2
sI36
I1
sI38
I1
sI39
I3
sI45
I5
sI47
I3
sI48
I5
sI49
I3
sI50
I5
sI51
I3
sI53
I3
sI54
I3
sI55
I4
sI56
I4
sI62
I1
sI64
I5
sI65
I3
sI66
I2
sI67
I3
sI68
I3
sI69
I3
sI70
I3
sI71
I4
sI73
I2
sI76
I3
sI77
I2
sI79
I3
sI81
I4
sI82
I4
sI85
I3
sI87
I4
sI88
I3
sI89
I5
sI91
I2
sI92
I4
sI94
I2
sI96
I3
sI97
I4
sI98
I4
sI99
I3
ssI294
(dp251
I1
I5
sI7
I4
sI10
I3
sI79
I4
sI50
I5
sI21
I3
sI24
I4
sI93
I4
ssI295
(dp252
I1
I4
sI4
I4
sI7
I5
sI11
I4
sI22
I4
sI25
I5
sI39
I4
sI42
I3
sI43
I4
sI47
I5
sI50
I5
sI52
I5
sI53
I1
sI56
I4
sI60
I5
sI65
I5
sI67
I4
sI68
I4
sI69
I5
sI70
I5
sI71
I5
sI72
I4
sI73
I4
sI79
I4
sI82
I4
sI83
I5
sI84
I2
sI86
I5
sI88
I4
sI89
I5
sI91
I5
sI94
I4
sI95
I4
sI96
I1
sI97
I5
sI98
I5
sI99
I4
ssI296
(dp253
I1
I5
sI7
I5
sI9
I4
sI10
I2
sI11
I5
sI13
I3
sI14
I4
sI15
I3
sI19
I5
sI20
I5
sI22
I4
sI23
I5
sI24
I2
sI32
I4
sI45
I5
sI48
I5
sI50
I5
sI55
I5
sI56
I5
sI61
I3
sI79
I4
sI83
I5
sI89
I5
sI96
I5
sI98
I5
ssI297
(dp254
I1
I3
sI4
I1
sI7
I4
sI8
I5
sI11
I4
sI12
I5
sI13
I3
sI17
I3
sI20
I4
sI22
I4
sI24
I4
sI25
I4
sI27
I1
sI28
I4
sI31
I3
sI32
I4
sI34
I3
sI42
I3
sI47
I2
sI50
I5
sI53
I3
sI55
I4
sI56
I5
sI57
I5
sI69
I3
sI70
I5
sI73
I2
sI79
I3
sI83
I4
sI86
I5
sI89
I4
sI90
I4
sI92
I3
sI95
I3
sI97
I5
sI98
I5
ssI298
(dp255
I1
I5
sI98
I4
sI99
I3
sI97
I4
sI69
I4
sI71
I5
sI8
I5
sI9
I4
sI79
I5
sI50
I5
sI22
I4
sI23
I4
sI88
I5
sI58
I4
sI91
I2
sI28
I4
ssI299
(dp256
I1
I3
sI4
I3
sI7
I3
sI10
I5
sI12
I5
sI13
I4
sI14
I4
sI17
I1
sI19
I1
sI20
I3
sI23
I4
sI24
I3
sI25
I3
sI26
I4
sI28
I4
sI32
I3
sI45
I3
sI47
I4
sI48
I4
sI49
I4
sI50
I4
sI52
I4
sI55
I2
sI56
I4
sI58
I3
sI59
I5
sI60
I5
sI61
I4
sI67
I2
sI70
I3
sI71
I3
sI72
I3
sI73
I2
sI77
I3
sI81
I4
sI83
I5
sI86
I4
sI88
I3
sI89
I5
sI91
I4
sI93
I2
sI94
I1
sI95
I3
sI97
I4
sI98
I4
sI99
I3
ssI301
(dp257
I1
I4
sI2
I2
sI3
I2
sI4
I4
sI7
I4
sI8
I4
sI9
I3
sI11
I4
sI12
I4
sI15
I4
sI17
I4
sI21
I2
sI22
I4
sI24
I4
sI25
I3
sI28
I4
sI29
I4
sI31
I3
sI33
I4
sI39
I3
sI41
I3
sI42
I4
sI43
I5
sI47
I4
sI50
I5
sI51
I4
sI53
I1
sI54
I3
sI56
I4
sI58
I4
sI62
I3
sI64
I5
sI66
I4
sI67
I2
sI68
I4
sI69
I5
sI71
I4
sI73
I4
sI76
I4
sI77
I3
sI79
I5
sI80
I3
sI81
I3
sI82
I5
sI88
I4
sI89
I2
sI90
I3
sI91
I3
sI94
I4
sI95
I5
sI96
I5
sI97
I4
sI98
I4
sI99
I4
ssI303
(dp258
I1
I5
sI2
I3
sI3
I3
sI4
I4
sI5
I2
sI7
I4
sI8
I5
sI9
I5
sI11
I4
sI12
I4
sI13
I4
sI15
I3
sI17
I4
sI21
I2
sI22
I5
sI23
I5
sI24
I3
sI25
I4
sI26
I4
sI28
I3
sI29
I2
sI31
I3
sI33
I4
sI38
I1
sI41
I5
sI42
I5
sI43
I3
sI44
I4
sI46
I3
sI47
I5
sI49
I2
sI50
I5
sI53
I3
sI54
I3
sI55
I4
sI56
I5
sI62
I2
sI63
I1
sI64
I5
sI65
I4
sI67
I5
sI68
I4
sI69
I5
sI70
I4
sI71
I3
sI72
I3
sI73
I3
sI77
I4
sI78
I2
sI79
I5
sI80
I4
sI81
I4
sI82
I4
sI83
I5
sI85
I3
sI87
I3
sI88
I4
sI90
I4
sI91
I5
sI92
I4
sI93
I5
sI94
I3
sI95
I5
sI96
I5
sI97
I5
sI98
I5
sI99
I4
ssI305
(dp259
I1
I5
sI2
I2
sI7
I4
sI11
I1
sI12
I5
sI13
I3
sI14
I4
sI15
I1
sI16
I3
sI33
I3
sI42
I4
sI45
I5
sI48
I5
sI49
I3
sI50
I5
sI52
I2
sI56
I1
sI59
I3
sI60
I3
sI61
I4
sI64
I5
sI66
I3
sI69
I3
sI70
I4
sI71
I3
sI76
I1
sI79
I3
sI81
I3
sI83
I3
sI86
I4
sI87
I1
sI88
I2
sI89
I3
sI91
I2
sI96
I3
sI97
I4
sI98
I4
ssI306
(dp260
I25
I3
sI19
I5
sI13
I4
sI14
I5
ssI307
(dp261
I64
I4
sI1
I5
sI99
I4
sI70
I4
sI71
I5
sI72
I3
sI62
I3
sI50
I5
sI81
I5
sI82
I4
sI83
I5
sI21
I4
sI22
I3
sI56
I4
sI24
I4
sI89
I5
sI91
I4
sI28
I3
sI94
I3
ssI308
(dp262
I1
I4
sI4
I5
sI5
I4
sI7
I4
sI8
I5
sI9
I4
sI11
I5
sI12
I5
sI15
I3
sI17
I4
sI19
I3
sI21
I3
sI22
I4
sI23
I5
sI24
I4
sI25
I4
sI28
I3
sI30
I4
sI31
I3
sI32
I5
sI42
I4
sI44
I4
sI45
I4
sI47
I4
sI48
I4
sI49
I3
sI50
I5
sI54
I2
sI55
I3
sI56
I5
sI58
I3
sI59
I4
sI60
I3
sI61
I3
sI64
I4
sI65
I3
sI66
I4
sI68
I4
sI69
I2
sI70
I4
sI71
I4
sI72
I4
sI73
I3
sI74
I4
sI77
I3
sI79
I4
sI81
I5
sI82
I4
sI85
I4
sI87
I4
sI88
I4
sI89
I5
sI91
I4
sI92
I4
sI95
I4
sI96
I4
sI97
I1
sI98
I3
sI99
I4
ssI310
(dp263
I24
I4
sI50
I5
sI14
I5
ssI311
(dp264
I1
I4
sI5
I3
sI8
I4
sI9
I4
sI12
I4
sI15
I5
sI22
I4
sI23
I3
sI28
I5
sI31
I4
sI38
I3
sI39
I4
sI41
I3
sI43
I4
sI44
I3
sI47
I2
sI50
I5
sI51
I4
sI54
I4
sI56
I5
sI58
I3
sI62
I3
sI63
I3
sI64
I5
sI66
I4
sI68
I1
sI69
I5
sI70
I4
sI71
I4
sI72
I4
sI73
I4
sI76
I4
sI77
I5
sI79
I4
sI81
I3
sI82
I5
sI83
I5
sI86
I5
sI88
I4
sI89
I5
sI91
I3
sI94
I3
sI96
I5
sI97
I4
sI98
I5
sI99
I5
ssI312
(dp265
I96
I5
sI1
I5
sI98
I4
sI4
I3
sI69
I4
sI70
I5
sI71
I4
sI8
I5
sI10
I5
sI23
I4
sI14
I5
sI50
I5
sI83
I4
sI52
I5
sI97
I5
sI89
I5
sI57
I5
sI91
I3
sI28
I4
ssI313
(dp266
I1
I4
sI8
I3
sI15
I2
sI22
I3
sI23
I4
sI25
I2
sI28
I3
sI29
I2
sI31
I4
sI44
I3
sI47
I3
sI50
I5
sI56
I2
sI58
I3
sI63
I4
sI64
I4
sI65
I2
sI66
I1
sI67
I1
sI69
I5
sI71
I4
sI73
I5
sI77
I3
sI79
I5
sI82
I3
sI88
I2
sI89
I5
sI94
I3
sI95
I3
sI96
I5
sI97
I4
sI98
I4
sI99
I4
ssI314
(dp267
I1
I5
sI5
I4
sI7
I4
sI8
I4
sI9
I4
sI11
I5
sI12
I4
sI15
I5
sI22
I4
sI24
I1
sI25
I3
sI28
I5
sI29
I5
sI36
I2
sI38
I5
sI41
I5
sI42
I5
sI53
I1
sI54
I4
sI56
I1
sI64
I5
sI65
I4
sI66
I5
sI67
I4
sI68
I4
sI69
I5
sI70
I1
sI71
I5
sI72
I2
sI73
I4
sI78
I4
sI88
I5
sI90
I2
sI93
I1
sI94
I4
sI95
I5
sI99
I4
ssI315
(dp268
I98
I4
sI4
I4
sI8
I3
sI23
I5
sI12
I5
sI13
I4
sI46
I4
sI79
I4
sI48
I4
sI17
I1
sI55
I5
sI56
I5
sI25
I5
sI93
I5
sI31
I3
ssI316
(dp269
I64
I4
sI97
I5
sI98
I5
sI69
I3
sI71
I1
sI9
I4
sI83
I4
sI44
I4
sI14
I4
sI50
I1
sI19
I5
sI22
I4
sI89
I1
sI58
I3
ssI318
(dp270
I4
I2
sI8
I4
sI12
I4
sI14
I4
sI15
I5
sI24
I4
sI25
I5
sI26
I5
sI40
I4
sI47
I2
sI49
I3
sI50
I2
sI56
I3
sI58
I4
sI63
I3
sI64
I4
sI66
I4
sI69
I5
sI70
I5
sI72
I4
sI77
I3
sI85
I3
sI88
I4
sI94
I4
ssI320
(dp271
I1
I3
sI2
I4
sI3
I4
sI4
I3
sI7
I4
sI11
I4
sI17
I5
sI22
I5
sI24
I3
sI27
I3
sI33
I4
sI38
I4
sI42
I4
sI50
I4
sI51
I5
sI54
I4
sI56
I5
sI62
I4
sI66
I4
sI68
I5
sI71
I3
sI77
I3
sI79
I4
sI82
I3
sI89
I4
sI90
I4
sI92
I5
sI95
I3
sI96
I5
sI97
I5
sI99
I4
ssI321
(dp272
I64
I3
sI32
I3
sI19
I4
sI7
I4
sI8
I4
sI9
I4
sI45
I4
sI14
I3
sI48
I4
sI50
I4
sI83
I4
sI20
I3
sI86
I4
sI87
I3
sI56
I4
sI89
I3
sI59
I4
sI60
I4
sI61
I5
sI30
I4
sI52
I3
ssI322
(dp273
I32
I5
sI1
I2
sI33
I4
sI64
I5
sI9
I4
sI12
I4
sI48
I4
sI50
I5
sI23
I5
sI89
I3
sI92
I4
ssI323
(dp274
I64
I5
sI98
I4
sI7
I2
sI9
I4
sI11
I5
sI15
I3
sI50
I5
sI22
I5
sI23
I5
sI56
I5
sI79
I4
sI93
I4
ssI324
(dp275
I9
I5
sI50
I5
sI14
I5
sI1
I5
ssI325
(dp276
I32
I3
sI1
I2
sI98
I4
sI99
I5
sI82
I3
sI71
I3
sI2
I1
sI47
I3
sI16
I1
sI50
I5
sI86
I3
sI23
I5
sI58
I3
sI28
I3
sI93
I4
sI95
I2
ssI326
(dp277
I1
I3
sI4
I1
sI8
I4
sI9
I1
sI22
I4
sI33
I2
sI38
I3
sI44
I1
sI48
I3
sI50
I5
sI53
I1
sI54
I3
sI56
I2
sI64
I4
sI67
I2
sI69
I2
sI72
I2
sI79
I4
sI82
I3
sI86
I2
sI88
I2
sI89
I4
sI90
I1
sI94
I4
sI96
I3
sI97
I4
sI98
I5
ssI327
(dp278
I1
I4
sI2
I2
sI4
I4
sI7
I3
sI8
I4
sI9
I5
sI10
I4
sI11
I4
sI12
I3
sI13
I2
sI14
I4
sI22
I4
sI23
I4
sI24
I2
sI25
I2
sI26
I3
sI28
I3
sI31
I2
sI32
I4
sI33
I3
sI42
I3
sI44
I3
sI47
I4
sI48
I4
sI50
I3
sI55
I4
sI56
I2
sI64
I2
sI65
I2
sI66
I3
sI69
I2
sI70
I4
sI72
I2
sI79
I3
sI81
I4
sI82
I2
sI83
I2
sI85
I2
sI86
I4
sI87
I3
sI88
I2
sI89
I4
sI90
I3
sI92
I4
sI93
I4
sI95
I3
sI96
I2
sI98
I4
sI99
I4
ssI328
(dp279
I4
I3
sI7
I4
sI8
I3
sI9
I4
sI10
I4
sI11
I3
sI12
I5
sI22
I5
sI23
I3
sI28
I5
sI29
I3
sI31
I4
sI38
I3
sI43
I3
sI44
I3
sI46
I2
sI50
I4
sI51
I3
sI54
I3
sI55
I4
sI56
I4
sI58
I4
sI62
I3
sI64
I4
sI65
I4
sI68
I3
sI69
I4
sI70
I4
sI71
I4
sI72
I3
sI73
I4
sI76
I3
sI77
I4
sI79
I4
sI82
I4
sI85
I1
sI89
I5
sI96
I4
sI97
I3
sI98
I4
ssI329
(dp280
I98
I4
sI7
I3
sI8
I2
sI11
I3
sI12
I4
sI79
I4
sI81
I2
sI50
I4
sI39
I2
ssI330
(dp281
I1
I5
sI8
I5
sI11
I4
sI15
I5
sI21
I5
sI22
I5
sI25
I5
sI28
I5
sI31
I5
sI38
I4
sI44
I5
sI47
I5
sI50
I5
sI51
I5
sI58
I5
sI63
I3
sI64
I5
sI66
I5
sI67
I4
sI69
I5
sI70
I4
sI71
I5
sI72
I5
sI73
I5
sI77
I4
sI80
I2
sI82
I4
sI88
I5
sI91
I4
sI94
I4
sI95
I5
sI97
I5
sI98
I5
sI99
I4
ssI331
(dp282
I64
I4
sI32
I4
sI1
I1
sI69
I5
sI7
I4
sI8
I3
sI11
I2
sI47
I5
sI81
I5
sI22
I4
sI58
I3
sI59
I5
sI31
I2
ssI332
(dp283
I1
I4
sI5
I5
sI7
I4
sI8
I5
sI9
I4
sI11
I5
sI12
I5
sI22
I5
sI31
I4
sI38
I2
sI41
I5
sI44
I3
sI50
I5
sI53
I3
sI54
I4
sI56
I5
sI64
I5
sI70
I2
sI73
I4
sI77
I4
sI79
I5
sI82
I5
sI89
I5
sI95
I5
sI96
I5
sI97
I5
sI98
I5
ssI333
(dp284
I88
I5
sI66
I5
sI98
I4
sI79
I3
ssI334
(dp285
I4
I3
sI7
I5
sI8
I4
sI9
I4
sI10
I4
sI11
I4
sI12
I5
sI13
I3
sI14
I3
sI19
I4
sI20
I4
sI22
I4
sI23
I4
sI28
I3
sI29
I2
sI38
I2
sI42
I4
sI44
I4
sI47
I4
sI50
I5
sI52
I4
sI56
I4
sI58
I4
sI59
I5
sI61
I3
sI68
I3
sI69
I1
sI70
I3
sI71
I3
sI72
I3
sI73
I3
sI74
I2
sI77
I3
sI79
I4
sI81
I4
sI82
I4
sI83
I4
sI86
I4
sI89
I4
sI91
I4
sI93
I4
sI95
I3
sI98
I4
sI99
I4
ssI336
(dp286
I1
I3
sI3
I1
sI4
I4
sI13
I3
sI15
I4
sI25
I3
sI26
I5
sI33
I3
sI41
I3
sI42
I5
sI49
I4
sI50
I4
sI56
I4
sI63
I2
sI66
I3
sI67
I4
sI70
I5
sI72
I3
sI85
I3
sI88
I2
sI90
I5
sI94
I3
ssI337
(dp287
I25
I3
sI50
I5
sI67
I4
sI15
I5
ssI338
(dp288
I1
I3
sI79
I4
sI83
I2
sI52
I5
sI86
I4
sI56
I3
ssI339
(dp289
I1
I5
sI4
I4
sI5
I3
sI7
I4
sI9
I5
sI11
I4
sI12
I5
sI22
I5
sI23
I5
sI25
I4
sI28
I4
sI29
I3
sI30
I3
sI32
I5
sI42
I4
sI45
I5
sI47
I4
sI50
I4
sI53
I4
sI55
I3
sI56
I5
sI58
I3
sI64
I5
sI65
I4
sI67
I3
sI69
I4
sI73
I3
sI74
I4
sI76
I3
sI79
I4
sI80
I3
sI81
I5
sI82
I4
sI86
I4
sI88
I4
sI89
I5
sI91
I5
sI92
I4
sI94
I2
sI97
I4
sI98
I4
sI99
I4
ssI340
(dp290
I1
I5
sI66
I5
sI71
I5
sI15
I5
sI50
I4
sI88
I5
sI95
I5
ssI342
(dp291
I3
I2
sI4
I4
sI7
I4
sI8
I4
sI9
I5
sI11
I5
sI12
I5
sI13
I3
sI14
I5
sI15
I3
sI23
I5
sI25
I2
sI26
I2
sI28
I2
sI32
I5
sI42
I3
sI47
I5
sI56
I5
sI57
I3
sI58
I5
sI68
I3
sI88
I1
sI89
I3
sI92
I4
sI93
I4
sI95
I4
sI98
I3
ssI343
(dp292
I1
I5
sI3
I4
sI4
I5
sI7
I5
sI8
I5
sI9
I5
sI10
I4
sI11
I5
sI12
I5
sI13
I5
sI20
I5
sI22
I4
sI23
I5
sI25
I2
sI26
I3
sI28
I5
sI38
I3
sI42
I4
sI44
I3
sI47
I4
sI48
I3
sI50
I5
sI52
I5
sI53
I5
sI55
I3
sI56
I5
sI57
I5
sI58
I4
sI62
I2
sI63
I4
sI64
I5
sI65
I5
sI66
I3
sI67
I3
sI68
I1
sI69
I5
sI72
I5
sI76
I4
sI77
I3
sI79
I4
sI81
I5
sI82
I5
sI83
I4
sI86
I5
sI87
I4
sI88
I4
sI89
I3
sI90
I4
sI97
I4
sI98
I5
ssI344
(dp293
I1
I3
sI4
I4
sI5
I3
sI7
I4
sI8
I5
sI9
I5
sI11
I3
sI12
I5
sI13
I3
sI14
I5
sI19
I4
sI22
I3
sI25
I4
sI26
I3
sI39
I3
sI45
I5
sI50
I5
sI58
I3
sI64
I5
sI69
I2
sI70
I3
sI71
I3
sI73
I3
sI79
I4
sI83
I4
sI86
I4
sI87
I4
sI88
I3
sI89
I5
sI95
I4
sI96
I4
sI97
I3
sI98
I4
ssI345
(dp294
I1
I3
sI4
I4
sI5
I3
sI9
I4
sI11
I4
sI12
I5
sI13
I4
sI14
I4
sI15
I4
sI25
I3
sI26
I3
sI28
I3
sI33
I4
sI38
I2
sI40
I3
sI42
I2
sI43
I3
sI44
I3
sI48
I5
sI49
I3
sI50
I5
sI51
I5
sI54
I3
sI56
I5
sI58
I4
sI64
I5
sI65
I4
sI66
I3
sI69
I4
sI70
I5
sI71
I3
sI77
I3
sI79
I4
sI81
I4
sI86
I4
sI87
I5
sI88
I4
sI91
I4
sI93
I4
sI98
I5
ssI346
(dp295
I2
I5
sI3
I3
sI4
I4
sI7
I2
sI11
I4
sI12
I5
sI17
I1
sI22
I5
sI29
I4
sI31
I4
sI33
I5
sI38
I3
sI50
I5
sI53
I1
sI54
I4
sI55
I5
sI56
I5
sI58
I3
sI62
I3
sI64
I4
sI67
I3
sI68
I3
sI72
I3
sI76
I4
sI77
I4
sI79
I5
sI83
I4
sI88
I4
sI89
I4
sI91
I1
sI92
I4
sI94
I3
sI96
I5
sI97
I4
sI98
I2
ssI347
(dp296
I1
I4
sI4
I4
sI7
I4
sI11
I5
sI12
I3
sI15
I2
sI17
I4
sI22
I5
sI24
I3
sI25
I2
sI28
I4
sI31
I5
sI50
I5
sI55
I5
sI56
I5
sI65
I2
sI68
I5
sI69
I5
sI70
I2
sI73
I2
sI76
I5
sI77
I5
sI79
I5
sI82
I5
sI85
I5
sI87
I3
sI91
I1
sI95
I4
sI96
I4
sI97
I4
sI98
I5
sI99
I3
ssI348
(dp297
I1
I4
sI7
I4
sI25
I4
sI15
I4
ssI349
(dp298
I9
I4
sI10
I5
sI20
I5
sI25
I3
sI15
I4
ssI350
(dp299
I1
I4
sI50
I5
sI23
I5
sI98
I4
sI89
I4
ssI352
(dp300
I96
I4
sI98
I5
sI4
I3
sI7
I3
sI39
I5
sI12
I4
sI82
I3
sI79
I4
sI17
I2
sI50
I5
sI86
I4
sI55
I1
sI56
I5
sI89
I5
sI92
I3
ssI354
(dp301
I7
I4
sI8
I5
sI9
I3
sI10
I5
sI13
I3
sI14
I4
sI19
I5
sI20
I5
sI25
I2
sI32
I3
sI42
I2
sI45
I5
sI47
I4
sI50
I4
sI52
I5
sI57
I5
sI58
I3
sI59
I5
sI60
I5
sI61
I5
sI65
I4
sI66
I2
sI70
I3
sI79
I2
sI81
I3
sI83
I4
sI86
I5
sI87
I3
sI88
I2
sI89
I4
sI93
I4
sI97
I3
sI98
I3
ssI357
(dp302
I24
I4
sI1
I5
sI10
I5
sI7
I3
ssI358
(dp303
I8
I5
sI65
I4
sI59
I4
sI45
I3
ssI359
(dp304
I24
I3
sI1
I4
sI50
I5
sI7
I5
ssI360
(dp305
I64
I5
sI1
I3
sI45
I4
sI69
I3
sI96
I3
sI10
I5
sI13
I3
sI14
I5
sI79
I4
sI50
I4
sI83
I4
sI23
I5
sI56
I4
sI25
I4
sI15
I3
sI28
I4
ssI361
(dp306
I12
I4
sI14
I4
sI23
I5
sI26
I3
sI28
I3
sI47
I4
sI49
I3
sI50
I5
sI53
I2
sI55
I2
sI56
I4
sI59
I4
sI60
I4
sI66
I4
sI70
I4
sI79
I4
sI83
I3
sI86
I4
sI88
I4
sI90
I2
sI97
I4
sI98
I5
ssI363
(dp307
I1
I2
sI2
I4
sI4
I5
sI5
I1
sI7
I3
sI8
I5
sI9
I3
sI11
I5
sI12
I5
sI17
I4
sI22
I3
sI24
I3
sI25
I3
sI28
I4
sI29
I1
sI32
I2
sI37
I2
sI38
I3
sI39
I4
sI42
I2
sI44
I3
sI47
I5
sI50
I5
sI54
I3
sI55
I5
sI56
I5
sI58
I3
sI62
I2
sI65
I4
sI66
I4
sI67
I1
sI68
I2
sI69
I3
sI70
I2
sI71
I3
sI72
I1
sI73
I2
sI77
I2
sI79
I2
sI80
I4
sI81
I4
sI82
I3
sI87
I3
sI88
I2
sI89
I4
sI90
I5
sI91
I4
sI93
I4
sI95
I3
sI96
I5
sI97
I2
sI98
I3
ssI365
(dp308
I25
I4
sI7
I2
sI1
I4
sI13
I3
sI15
I3
ssI366
(dp309
I56
I5
sI17
I5
sI98
I5
sI53
I5
sI7
I2
ssI367
(dp310
I98
I5
sI5
I4
sI7
I5
sI17
I5
sI50
I5
sI53
I4
sI56
I5
ssI368
(dp311
I96
I3
sI98
I3
sI5
I3
sI7
I4
sI11
I4
sI17
I5
sI50
I4
sI53
I2
sI56
I4
sI89
I4
ssI369
(dp312
I50
I5
ssI370
(dp313
I64
I4
sI98
I4
sI42
I3
sI12
I4
sI14
I3
sI50
I4
sI52
I4
sI22
I4
sI56
I2
sI57
I5
sI31
I3
ssI371
(dp314
I64
I4
sI97
I5
sI98
I5
sI66
I4
sI69
I5
sI1
I4
sI73
I5
sI42
I3
sI77
I5
sI79
I5
sI50
I4
sI22
I5
sI55
I4
sI24
I4
sI31
I5
ssI372
(dp315
I98
I5
sI5
I4
sI7
I3
sI44
I4
sI12
I4
sI77
I5
sI79
I5
sI53
I5
sI23
I5
sI56
I4
ssI373
(dp316
I2
I4
sI4
I4
sI12
I5
sI15
I4
sI20
I2
sI22
I5
sI24
I4
sI25
I4
sI28
I3
sI31
I3
sI48
I5
sI50
I5
sI58
I4
sI64
I4
sI66
I4
sI68
I5
sI69
I4
sI70
I4
sI71
I5
sI79
I4
sI80
I3
sI81
I2
sI82
I1
sI83
I5
sI88
I4
sI89
I5
sI90
I4
sI94
I2
sI95
I5
sI96
I4
sI97
I3
sI99
I5
ssI374
(dp317
I1
I4
sI2
I4
sI4
I2
sI5
I4
sI7
I1
sI9
I1
sI11
I4
sI12
I4
sI15
I3
sI17
I2
sI23
I3
sI24
I3
sI25
I5
sI27
I4
sI28
I5
sI29
I3
sI31
I5
sI38
I4
sI39
I4
sI48
I5
sI50
I3
sI54
I4
sI55
I2
sI56
I5
sI64
I5
sI66
I3
sI68
I1
sI69
I5
sI70
I4
sI71
I5
sI77
I5
sI79
I4
sI82
I4
sI87
I5
sI88
I3
sI89
I2
sI95
I4
sI96
I4
sI97
I5
sI98
I5
ssI375
(dp318
I5
I4
sI44
I3
sI77
I4
sI39
I3
ssI376
(dp319
I98
I5
sI11
I4
sI14
I4
ssI377
(dp320
I56
I4
sI98
I5
sI7
I4
ssI378
(dp321
I1
I4
sI2
I2
sI4
I3
sI5
I3
sI7
I4
sI8
I4
sI9
I5
sI10
I3
sI11
I3
sI12
I5
sI13
I3
sI14
I5
sI15
I4
sI21
I3
sI22
I5
sI25
I4
sI28
I4
sI29
I3
sI31
I4
sI38
I3
sI40
I3
sI42
I4
sI43
I3
sI44
I3
sI47
I4
sI48
I5
sI49
I3
sI50
I4
sI51
I3
sI52
I5
sI53
I3
sI54
I4
sI55
I4
sI56
I4
sI58
I4
sI59
I4
sI62
I4
sI63
I3
sI64
I4
sI65
I3
sI66
I3
sI67
I2
sI68
I2
sI69
I3
sI70
I4
sI71
I4
sI73
I3
sI77
I4
sI78
I3
sI79
I4
sI82
I4
sI83
I4
sI86
I4
sI87
I4
sI88
I4
sI89
I4
sI91
I3
sI94
I3
sI95
I4
sI96
I4
sI97
I5
sI98
I5
sI99
I4
ssI379
(dp322
I1
I4
sI2
I3
sI4
I5
sI7
I5
sI8
I5
sI9
I4
sI12
I5
sI23
I4
sI28
I4
sI47
I5
sI50
I4
sI52
I4
sI54
I2
sI56
I5
sI62
I2
sI63
I2
sI64
I5
sI69
I4
sI79
I5
sI82
I4
sI83
I4
sI88
I4
sI89
I4
sI90
I2
sI93
I3
sI94
I5
sI96
I5
sI97
I3
sI98
I5
ssI380
(dp323
I1
I4
sI7
I3
sI9
I3
sI12
I5
sI22
I4
sI28
I4
sI31
I1
sI38
I2
sI50
I4
sI58
I2
sI59
I4
sI60
I4
sI61
I4
sI62
I1
sI64
I3
sI69
I4
sI71
I4
sI79
I4
sI81
I3
sI86
I4
sI89
I5
sI95
I4
sI97
I3
sI98
I4
ssI381
(dp324
I96
I5
sI97
I4
sI99
I5
sI1
I5
sI15
I2
sI13
I4
sI14
I5
sI77
I2
sI16
I4
sI49
I2
sI50
I5
sI83
I4
sI20
I5
sI94
I3
sI59
I3
sI89
I5
sI79
I3
sI30
I4
sI95
I4
ssI382
(dp325
I98
I3
sI7
I2
sI9
I4
sI14
I3
sI50
I1
sI23
I5
sI56
I5
sI25
I2
sI59
I5
ssI383
(dp326
I9
I5
sI14
I5
sI81
I4
sI19
I4
sI86
I5
sI89
I3
sI58
I4
ssI385
(dp327
I2
I3
sI4
I2
sI8
I5
sI12
I3
sI18
I5
sI23
I5
sI24
I3
sI29
I1
sI30
I5
sI32
I5
sI37
I4
sI42
I1
sI46
I5
sI47
I4
sI48
I5
sI50
I1
sI53
I1
sI55
I2
sI56
I5
sI58
I4
sI59
I2
sI61
I2
sI79
I3
sI81
I3
sI82
I1
sI87
I3
sI89
I4
sI92
I3
sI93
I3
sI98
I4
sI99
I2
ssI386
(dp328
I24
I4
sI50
I4
sI7
I3
ssI387
(dp329
I1
I4
sI2
I4
sI4
I3
sI7
I5
sI8
I4
sI10
I4
sI11
I3
sI12
I5
sI13
I4
sI20
I4
sI22
I5
sI23
I2
sI24
I5
sI25
I2
sI27
I1
sI28
I5
sI29
I1
sI31
I3
sI32
I5
sI33
I3
sI39
I3
sI42
I4
sI46
I3
sI47
I4
sI48
I4
sI50
I5
sI52
I5
sI53
I4
sI55
I3
sI56
I5
sI58
I4
sI61
I3
sI62
I2
sI64
I3
sI68
I4
sI69
I3
sI71
I2
sI76
I3
sI79
I4
sI81
I3
sI82
I4
sI83
I4
sI89
I5
sI91
I4
sI92
I4
sI93
I5
sI95
I2
sI96
I4
sI97
I2
sI98
I4
sI99
I5
ssI388
(dp330
I1
I5
sI98
I5
sI5
I4
sI9
I3
sI53
I5
sI56
I3
ssI389
(dp331
I1
I4
sI4
I4
sI8
I4
sI15
I2
sI23
I4
sI25
I3
sI28
I4
sI29
I2
sI38
I2
sI40
I3
sI42
I4
sI47
I4
sI50
I5
sI53
I2
sI56
I5
sI58
I4
sI59
I5
sI64
I4
sI65
I4
sI66
I3
sI67
I2
sI69
I5
sI71
I4
sI72
I3
sI77
I2
sI79
I4
sI80
I3
sI81
I3
sI82
I4
sI87
I5
sI88
I3
sI90
I3
sI94
I2
sI95
I3
sI98
I4
sI99
I5
ssI390
(dp332
I1
I5
sI13
I2
sI9
I5
ssI391
(dp333
I8
I3
sI9
I5
sI11
I3
sI12
I5
sI15
I4
sI22
I4
sI23
I4
sI26
I5
sI31
I2
sI47
I4
sI48
I4
sI50
I4
sI56
I5
sI58
I4
sI59
I5
sI60
I5
sI61
I5
sI64
I5
sI69
I4
sI71
I3
sI76
I3
sI89
I3
sI96
I3
sI97
I4
sI98
I4
ssI392
(dp334
I98
I5
sI99
I5
sI8
I5
sI11
I4
sI50
I5
sI23
I5
sI58
I4
sI59
I4
ssI393
(dp335
I1
I3
sI2
I4
sI3
I3
sI4
I4
sI5
I3
sI7
I4
sI8
I3
sI9
I4
sI11
I3
sI12
I5
sI15
I3
sI17
I1
sI21
I3
sI22
I4
sI24
I3
sI25
I2
sI26
I3
sI27
I4
sI28
I4
sI29
I4
sI31
I4
sI33
I3
sI36
I3
sI38
I4
sI40
I1
sI41
I4
sI42
I4
sI48
I2
sI49
I4
sI50
I5
sI51
I4
sI54
I4
sI55
I4
sI56
I2
sI58
I3
sI62
I4
sI64
I4
sI65
I2
sI66
I3
sI67
I3
sI68
I4
sI69
I4
sI70
I3
sI71
I3
sI72
I4
sI73
I4
sI77
I3
sI78
I2
sI79
I4
sI80
I3
sI81
I2
sI82
I4
sI83
I4
sI84
I3
sI85
I3
sI86
I2
sI87
I4
sI88
I3
sI89
I3
sI90
I2
sI94
I4
sI95
I4
sI96
I4
sI97
I4
sI99
I3
ssI394
(dp336
I1
I4
sI4
I4
sI7
I5
sI12
I4
sI22
I5
sI24
I5
sI28
I4
sI29
I3
sI31
I3
sI33
I4
sI38
I4
sI39
I4
sI42
I4
sI50
I5
sI56
I5
sI62
I4
sI63
I4
sI67
I5
sI68
I5
sI69
I5
sI72
I4
sI73
I3
sI77
I3
sI79
I5
sI82
I4
sI84
I4
sI88
I3
sI89
I5
sI90
I3
sI91
I4
sI96
I5
sI97
I4
sI98
I5
ssI395
(dp337
I64
I5
sI97
I5
sI98
I5
sI1
I5
sI15
I3
sI50
I5
sI21
I3
sI89
I5
ssI396
(dp338
I1
I4
sI9
I4
sI25
I3
ssI397
(dp339
I65
I2
sI7
I5
sI8
I4
sI12
I4
sI14
I3
sI50
I5
sI22
I4
sI23
I5
sI56
I5
sI58
I5
sI95
I4
ssI398
(dp340
I1
I5
sI2
I3
sI4
I2
sI8
I3
sI12
I3
sI13
I3
sI15
I5
sI25
I4
sI28
I5
sI31
I3
sI47
I3
sI49
I3
sI50
I5
sI56
I4
sI58
I4
sI63
I2
sI64
I4
sI65
I3
sI66
I4
sI69
I5
sI70
I4
sI71
I5
sI72
I3
sI73
I3
sI79
I4
sI82
I5
sI85
I4
sI86
I3
sI87
I4
sI88
I4
sI94
I2
sI95
I5
sI96
I4
sI97
I4
ssI399
(dp341
I1
I4
sI2
I3
sI5
I3
sI8
I3
sI9
I3
sI11
I4
sI12
I3
sI15
I5
sI22
I3
sI24
I4
sI26
I2
sI28
I2
sI29
I3
sI31
I3
sI33
I3
sI38
I2
sI39
I2
sI41
I2
sI42
I2
sI43
I3
sI47
I3
sI48
I3
sI50
I3
sI53
I4
sI54
I4
sI55
I2
sI56
I3
sI57
I4
sI58
I3
sI62
I3
sI63
I3
sI64
I3
sI66
I3
sI67
I3
sI68
I3
sI69
I3
sI71
I3
sI72
I4
sI73
I3
sI77
I2
sI78
I3
sI79
I3
sI80
I3
sI82
I3
sI84
I2
sI90
I2
sI91
I4
sI93
I3
sI94
I5
sI95
I3
sI96
I3
sI97
I4
sI98
I4
sI99
I3
ssI401
(dp342
I64
I3
sI65
I4
sI99
I4
sI1
I2
sI69
I3
sI70
I4
sI71
I2
sI9
I3
sI11
I2
sI44
I4
sI13
I2
sI14
I3
sI50
I1
sI83
I4
sI97
I4
sI88
I4
sI25
I4
sI26
I3
ssI402
(dp343
I32
I3
sI48
I5
sI1
I5
sI7
I4
sI96
I5
sI10
I2
sI12
I4
sI13
I3
sI15
I5
sI16
I3
sI50
I4
sI19
I4
sI9
I4
sI25
I4
sI42
I4
sI95
I5
ssI403
(dp344
I9
I3
sI50
I5
sI1
I4
sI7
I5
ssI404
(dp345
I66
I4
sI22
I5
ssI405
(dp346
I2
I1
sI4
I4
sI5
I4
sI8
I4
sI11
I4
sI12
I5
sI22
I5
sI23
I5
sI26
I3
sI27
I1
sI28
I4
sI29
I4
sI30
I1
sI31
I1
sI32
I1
sI33
I1
sI35
I2
sI36
I2
sI37
I1
sI38
I5
sI39
I1
sI40
I2
sI41
I1
sI42
I1
sI43
I1
sI44
I1
sI45
I1
sI46
I1
sI47
I5
sI48
I1
sI49
I1
sI50
I5
sI51
I1
sI52
I1
sI53
I2
sI54
I2
sI55
I1
sI56
I4
sI57
I1
sI58
I1
sI59
I1
sI60
I1
sI61
I1
sI62
I1
sI63
I3
sI64
I5
sI65
I1
sI66
I5
sI67
I5
sI68
I1
sI69
I4
sI70
I3
sI71
I1
sI72
I3
sI73
I5
sI75
I2
sI76
I3
sI77
I1
sI78
I2
sI79
I5
sI80
I1
sI81
I3
sI82
I4
sI83
I1
sI85
I4
sI86
I1
sI87
I1
sI88
I3
sI89
I1
sI90
I4
sI91
I2
sI92
I1
sI94
I5
sI95
I3
sI96
I3
sI97
I2
sI98
I4
sI99
I5
ssI406
(dp347
I1
I4
sI3
I3
sI4
I2
sI5
I4
sI7
I4
sI8
I4
sI9
I5
sI10
I3
sI11
I4
sI12
I4
sI13
I2
sI14
I4
sI15
I4
sI20
I3
sI22
I3
sI23
I4
sI24
I3
sI25
I1
sI26
I3
sI28
I3
sI30
I4
sI32
I5
sI39
I4
sI40
I3
sI42
I5
sI47
I4
sI48
I5
sI50
I5
sI52
I5
sI53
I4
sI56
I5
sI57
I4
sI58
I4
sI63
I3
sI64
I4
sI69
I4
sI70
I3
sI71
I3
sI72
I3
sI73
I2
sI79
I3
sI85
I2
sI86
I4
sI87
I3
sI88
I2
sI89
I4
sI92
I4
sI93
I4
sI95
I4
sI96
I5
sI97
I5
sI98
I4
sI99
I5
ssI407
(dp348
I1
I4
sI2
I4
sI4
I4
sI7
I4
sI8
I5
sI25
I3
sI28
I4
sI29
I3
sI40
I1
sI45
I4
sI50
I4
sI56
I5
sI62
I3
sI67
I1
sI68
I4
sI69
I4
sI70
I4
sI71
I3
sI72
I4
sI73
I4
sI82
I3
sI85
I4
sI88
I3
sI89
I4
sI91
I4
sI94
I4
sI95
I3
sI96
I3
sI97
I4
sI98
I5
sI99
I4
ssI409
(dp349
I6
I4
sI8
I3
sI9
I4
sI12
I4
sI14
I5
sI22
I2
sI23
I4
sI28
I2
sI30
I4
sI45
I4
sI48
I2
sI50
I5
sI58
I4
sI59
I5
sI60
I5
sI61
I4
sI65
I4
sI79
I4
sI83
I3
sI87
I3
sI89
I5
sI97
I5
sI98
I5
sI99
I3
ssI411
(dp350
I1
I4
sI4
I4
sI38
I4
sI8
I3
sI73
I4
sI79
I4
sI56
I4
sI50
I5
sI22
I4
sI9
I4
sI88
I3
sI89
I3
sI58
I3
sI28
I4
ssI412
(dp351
I96
I5
sI64
I4
sI4
I3
sI70
I4
sI7
I5
sI28
I4
sI81
I2
sI1
I4
sI24
I3
sI23
I4
sI56
I5
sI92
I3
ssI413
(dp352
I7
I3
sI9
I4
sI14
I5
sI15
I4
sI50
I5
sI25
I3
ssI414
(dp353
I11
I5
ssI415
(dp354
I56
I5
ssI416
(dp355
I1
I5
sI2
I4
sI4
I4
sI7
I4
sI8
I5
sI9
I5
sI10
I3
sI11
I4
sI12
I5
sI13
I5
sI14
I4
sI15
I4
sI17
I2
sI21
I3
sI22
I5
sI24
I5
sI25
I4
sI27
I4
sI28
I5
sI29
I2
sI31
I5
sI32
I2
sI36
I2
sI38
I3
sI41
I3
sI42
I3
sI43
I1
sI44
I4
sI49
I4
sI50
I5
sI51
I5
sI53
I2
sI54
I5
sI55
I2
sI56
I5
sI58
I5
sI64
I5
sI65
I5
sI66
I5
sI67
I4
sI69
I4
sI70
I5
sI71
I4
sI72
I2
sI73
I3
sI77
I4
sI78
I2
sI79
I5
sI80
I2
sI81
I5
sI82
I5
sI83
I5
sI85
I3
sI86
I1
sI87
I5
sI88
I3
sI90
I4
sI92
I3
sI93
I4
sI94
I2
sI95
I3
sI96
I4
sI97
I5
sI98
I5
sI99
I4
ssI417
(dp356
I1
I4
sI3
I4
sI4
I3
sI5
I4
sI7
I3
sI11
I5
sI12
I4
sI13
I2
sI15
I5
sI16
I3
sI17
I4
sI20
I2
sI23
I3
sI24
I3
sI25
I2
sI27
I3
sI29
I2
sI32
I2
sI39
I3
sI40
I3
sI42
I4
sI44
I2
sI47
I3
sI49
I3
sI50
I3
sI51
I3
sI55
I5
sI56
I5
sI58
I3
sI62
I3
sI63
I3
sI64
I5
sI65
I4
sI66
I3
sI67
I4
sI68
I3
sI69
I3
sI70
I4
sI72
I4
sI73
I3
sI77
I3
sI78
I2
sI79
I3
sI80
I4
sI81
I5
sI82
I4
sI83
I5
sI89
I5
sI90
I3
sI91
I2
sI94
I3
sI95
I5
sI96
I3
sI97
I4
sI98
I5
sI99
I4
ssI419
(dp357
I1
I4
sI69
I4
sI14
I5
sI79
I4
sI50
I5
sI89
I3
sI28
I3
ssI420
(dp358
I19
I3
sI86
I5
sI14
I5
ssI421
(dp359
I96
I4
sI98
I5
sI4
I3
sI7
I3
sI11
I2
sI12
I5
sI50
I5
sI79
I4
sI82
I4
sI87
I4
sI56
I5
sI89
I5
ssI422
(dp360
I1
I3
sI98
I5
sI5
I3
sI7
I3
sI15
I3
sI50
I4
sI53
I4
sI93
I4
ssI423
(dp361
I9
I5
sI10
I4
sI15
I4
ssI424
(dp362
I1
I1
sI9
I5
sI14
I4
sI15
I4
sI50
I3
sI25
I4
ssI425
(dp363
I1
I2
sI2
I2
sI4
I4
sI5
I1
sI7
I3
sI11
I3
sI12
I5
sI17
I4
sI22
I3
sI24
I2
sI27
I3
sI32
I3
sI33
I4
sI38
I3
sI39
I4
sI50
I5
sI53
I4
sI55
I4
sI56
I5
sI62
I4
sI64
I4
sI68
I4
sI70
I3
sI79
I4
sI82
I3
sI83
I2
sI89
I4
sI92
I5
sI96
I4
sI97
I2
sI98
I4
ssI426
(dp364
I98
I4
sI99
I4
sI50
I4
sI23
I4
ssI429
(dp365
I1
I3
sI2
I3
sI3
I2
sI4
I4
sI7
I2
sI8
I3
sI11
I4
sI12
I5
sI15
I5
sI21
I2
sI22
I5
sI23
I4
sI24
I3
sI25
I4
sI26
I3
sI28
I3
sI31
I3
sI32
I4
sI39
I3
sI42
I5
sI44
I3
sI45
I3
sI47
I4
sI48
I3
sI50
I5
sI52
I4
sI53
I1
sI55
I4
sI56
I4
sI58
I4
sI62
I3
sI63
I2
sI64
I4
sI65
I3
sI66
I2
sI68
I3
sI69
I5
sI70
I4
sI71
I3
sI72
I2
sI73
I3
sI77
I3
sI79
I4
sI80
I3
sI81
I3
sI82
I4
sI83
I4
sI85
I4
sI86
I5
sI87
I3
sI88
I3
sI89
I4
sI90
I4
sI91
I3
sI92
I4
sI93
I4
sI95
I3
sI96
I4
sI97
I4
sI98
I4
sI99
I3
ssI430
(dp366
I64
I4
sI98
I5
sI7
I3
sI9
I3
sI10
I4
sI12
I4
sI50
I4
sI19
I5
sI56
I4
sI42
I3
ssI432
(dp367
I1
I2
sI3
I3
sI7
I2
sI15
I4
sI50
I5
sI24
I1
sI93
I2
ssI433
(dp368
I12
I5
sI50
I5
sI59
I5
sI60
I5
sI95
I3
ssI434
(dp369
I9
I1
sI15
I3
sI1
I4
sI7
I1
ssI435
(dp370
I1
I5
sI2
I4
sI3
I3
sI4
I4
sI5
I2
sI7
I4
sI8
I3
sI9
I4
sI10
I5
sI11
I5
sI12
I5
sI15
I3
sI17
I2
sI21
I4
sI22
I4
sI23
I4
sI24
I4
sI25
I5
sI27
I1
sI28
I3
sI29
I3
sI31
I5
sI33
I3
sI38
I2
sI39
I3
sI40
I3
sI42
I3
sI44
I2
sI45
I5
sI49
I4
sI50
I5
sI52
I5
sI53
I3
sI54
I4
sI55
I5
sI56
I5
sI58
I3
sI62
I3
sI63
I2
sI64
I5
sI67
I4
sI68
I4
sI69
I4
sI71
I3
sI72
I4
sI73
I3
sI76
I3
sI79
I4
sI80
I2
sI81
I3
sI82
I5
sI83
I4
sI84
I2
sI85
I4
sI86
I4
sI89
I4
sI90
I4
sI91
I4
sI95
I3
sI96
I5
sI98
I5
ssI436
(dp371
I96
I4
sI65
I4
sI66
I5
sI99
I3
sI38
I3
sI39
I3
sI72
I5
sI73
I4
sI43
I2
sI98
I4
sI47
I4
sI11
I5
sI81
I3
sI50
I4
sI83
I5
sI21
I3
sI23
I4
sI90
I3
sI92
I3
sI26
I3
sI95
I4
ssI437
(dp372
I5
I2
sI8
I4
sI11
I1
sI12
I5
sI13
I4
sI14
I5
sI15
I4
sI23
I4
sI26
I2
sI28
I3
sI30
I4
sI42
I3
sI47
I4
sI50
I5
sI51
I1
sI52
I3
sI56
I4
sI58
I4
sI65
I4
sI66
I3
sI69
I2
sI70
I3
sI71
I3
sI77
I4
sI79
I4
sI82
I3
sI83
I4
sI86
I4
sI87
I3
sI88
I3
sI89
I2
sI90
I3
sI91
I3
sI94
I4
sI95
I4
sI97
I3
sI98
I5
sI99
I4
ssI438
(dp373
I9
I4
sI50
I5
sI1
I4
sI21
I2
sI15
I4
ssI439
(dp374
I7
I4
sI13
I3
sI14
I5
sI93
I4
ssI440
(dp375
I57
I5
sI70
I4
sI86
I5
ssI441
(dp376
I7
I4
sI25
I3
sI15
I3
sI1
I5
sI9
I4
ssI442
(dp377
I2
I3
sI7
I4
sI11
I4
sI12
I4
sI14
I1
sI17
I4
sI22
I2
sI26
I3
sI27
I2
sI29
I3
sI31
I3
sI33
I3
sI38
I3
sI39
I3
sI41
I4
sI42
I4
sI44
I2
sI53
I3
sI54
I3
sI55
I3
sI56
I5
sI62
I2
sI64
I5
sI67
I3
sI68
I3
sI69
I3
sI77
I3
sI79
I3
sI82
I3
sI89
I4
sI90
I3
sI92
I5
sI96
I4
sI98
I4
ssI443
(dp378
I12
I5
sI39
I1
ssI444
(dp379
I9
I5
sI50
I5
ssI445
(dp380
I64
I2
sI96
I4
sI1
I3
sI7
I1
sI9
I2
sI87
I3
sI12
I2
sI79
I4
sI50
I2
sI23
I3
sI56
I5
sI55
I1
sI28
I4
sI93
I1
ssI447
(dp381
I1
I3
sI5
I3
sI7
I5
sI9
I2
sI11
I4
sI12
I5
sI13
I5
sI15
I1
sI17
I3
sI22
I4
sI24
I3
sI25
I4
sI27
I3
sI28
I4
sI31
I4
sI50
I5
sI55
I4
sI56
I5
sI65
I3
sI68
I5
sI69
I4
sI70
I3
sI79
I3
sI83
I5
sI85
I4
sI89
I5
sI91
I4
sI96
I5
sI98
I4
ssI449
(dp382
I70
I4
sI9
I4
sI14
I3
sI15
I4
sI86
I4
sI59
I5
sI60
I5
sI61
I5
ssI450
(dp383
I1
I4
sI2
I4
sI3
I4
sI4
I3
sI7
I4
sI10
I4
sI11
I5
sI12
I4
sI13
I3
sI15
I3
sI22
I5
sI23
I5
sI25
I3
sI26
I5
sI28
I4
sI29
I3
sI33
I5
sI35
I2
sI38
I4
sI39
I4
sI43
I4
sI44
I3
sI47
I3
sI49
I5
sI50
I5
sI51
I4
sI54
I4
sI56
I4
sI58
I3
sI59
I4
sI60
I3
sI61
I4
sI63
I4
sI64
I4
sI65
I3
sI66
I4
sI67
I3
sI69
I4
sI70
I4
sI71
I3
sI73
I3
sI76
I3
sI77
I4
sI78
I2
sI79
I4
sI80
I3
sI81
I4
sI82
I3
sI83
I4
sI86
I4
sI87
I5
sI88
I5
sI89
I5
sI90
I4
sI91
I4
sI92
I4
sI94
I4
sI95
I3
sI96
I4
sI97
I4
sI98
I4
sI99
I4
ssI452
(dp384
I7
I5
sI8
I4
sI14
I3
sI15
I4
sI22
I5
sI23
I2
sI25
I2
sI27
I5
sI45
I4
sI48
I5
sI50
I5
sI52
I3
sI58
I3
sI60
I1
sI61
I1
sI62
I2
sI64
I4
sI66
I4
sI69
I5
sI70
I5
sI71
I3
sI73
I3
sI76
I4
sI77
I3
sI79
I4
sI82
I3
sI83
I3
sI86
I4
sI88
I2
sI89
I5
sI94
I1
sI96
I2
sI97
I4
sI98
I5
sI99
I3
ssI453
(dp385
I3
I4
sI4
I4
sI7
I5
sI9
I3
sI11
I5
sI12
I5
sI17
I4
sI22
I5
sI24
I4
sI25
I4
sI33
I4
sI42
I5
sI48
I4
sI49
I3
sI50
I5
sI53
I3
sI55
I4
sI56
I5
sI59
I2
sI67
I4
sI68
I4
sI69
I4
sI73
I4
sI77
I3
sI79
I3
sI80
I2
sI82
I3
sI85
I3
sI90
I3
sI93
I2
sI94
I4
sI97
I3
sI98
I4
sI99
I3
ssI454
(dp386
I1
I3
sI8
I5
sI11
I1
sI12
I3
sI15
I2
sI22
I4
sI28
I4
sI48
I4
sI50
I4
sI51
I2
sI55
I2
sI56
I3
sI58
I4
sI64
I4
sI66
I4
sI69
I4
sI70
I4
sI71
I3
sI73
I3
sI76
I1
sI77
I4
sI79
I4
sI81
I1
sI82
I4
sI86
I2
sI87
I4
sI88
I4
sI89
I1
sI95
I2
sI96
I4
sI97
I4
sI98
I1
sI99
I3
ssI455
(dp387
I1
I4
sI2
I4
sI4
I3
sI7
I4
sI8
I4
sI9
I4
sI11
I3
sI12
I3
sI14
I3
sI15
I2
sI17
I3
sI20
I3
sI22
I4
sI24
I3
sI25
I3
sI28
I4
sI31
I4
sI39
I2
sI40
I3
sI42
I2
sI44
I3
sI47
I2
sI50
I5
sI52
I3
sI53
I1
sI56
I5
sI57
I4
sI58
I3
sI64
I4
sI65
I3
sI69
I4
sI70
I3
sI71
I3
sI77
I4
sI79
I4
sI82
I5
sI87
I3
sI89
I3
sI95
I4
sI96
I4
sI97
I5
sI98
I4
ssI456
(dp388
I1
I2
sI3
I4
sI4
I3
sI9
I3
sI12
I3
sI13
I4
sI14
I5
sI22
I4
sI23
I4
sI32
I4
sI33
I4
sI42
I4
sI46
I3
sI50
I4
sI53
I4
sI54
I3
sI56
I5
sI57
I4
sI59
I4
sI60
I4
sI61
I4
sI68
I4
sI69
I4
sI71
I3
sI72
I1
sI79
I3
sI80
I2
sI86
I2
sI91
I2
sI92
I4
sI94
I3
sI95
I4
sI97
I4
sI98
I3
sI99
I3
ssI457
(dp389
I1
I4
sI4
I4
sI7
I4
sI8
I5
sI9
I5
sI11
I4
sI12
I5
sI13
I3
sI14
I4
sI15
I4
sI20
I5
sI22
I5
sI25
I4
sI27
I4
sI28
I5
sI31
I4
sI38
I3
sI44
I4
sI45
I5
sI47
I4
sI48
I5
sI50
I5
sI51
I5
sI52
I4
sI53
I4
sI54
I4
sI56
I4
sI57
I4
sI58
I4
sI59
I5
sI62
I3
sI64
I5
sI65
I5
sI66
I4
sI69
I5
sI70
I4
sI77
I4
sI79
I5
sI82
I5
sI83
I5
sI86
I3
sI88
I4
sI89
I5
sI91
I4
sI94
I3
sI96
I5
sI97
I5
sI98
I5
ssI458
(dp390
I1
I4
sI7
I4
sI8
I4
sI9
I5
sI12
I5
sI13
I4
sI14
I5
sI20
I4
sI21
I2
sI23
I4
sI25
I1
sI28
I3
sI32
I4
sI48
I4
sI50
I2
sI52
I4
sI56
I5
sI57
I1
sI58
I5
sI64
I4
sI69
I2
sI76
I4
sI79
I5
sI83
I4
sI86
I5
sI96
I4
sI97
I1
sI98
I3
sI99
I4
ssI459
(dp391
I1
I4
sI98
I5
sI3
I2
sI7
I5
sI8
I5
sI15
I4
sI16
I2
sI50
I4
sI19
I3
sI22
I5
sI25
I2
sI79
I3
ssI460
(dp392
I1
I2
sI7
I3
sI9
I3
sI10
I3
sI13
I3
sI14
I5
sI19
I5
sI20
I4
ssI461
(dp393
I9
I5
sI50
I3
ssI462
(dp394
I11
I5
sI22
I5
ssI463
(dp395
I1
I1
sI3
I2
sI7
I4
sI10
I1
sI13
I3
sI14
I1
sI15
I4
sI16
I4
sI50
I4
sI19
I5
sI20
I5
sI21
I1
sI24
I3
sI25
I3
sI93
I4
ssI464
(dp396
I16
I4
sI50
I4
sI12
I5
ssI465
(dp397
I64
I5
sI97
I2
sI98
I4
sI1
I4
sI32
I3
sI8
I4
sI7
I5
sI12
I4
sI48
I3
sI50
I4
sI22
I3
sI87
I4
sI56
I4
sI28
I3
ssI466
(dp398
I2
I1
sI4
I3
sI7
I4
sI11
I3
sI17
I5
sI22
I5
sI24
I4
sI27
I3
sI33
I4
sI50
I5
sI55
I4
sI56
I4
sI62
I3
sI68
I3
sI79
I3
sI82
I3
sI87
I3
sI89
I3
sI92
I4
sI95
I2
sI96
I5
sI98
I3
ssI467
(dp399
I1
I4
sI7
I5
sI10
I4
sI50
I4
sI24
I4
sI93
I4
ssI468
(dp400
I1
I5
sI4
I5
sI5
I3
sI7
I3
sI8
I4
sI9
I5
sI12
I4
sI13
I4
sI15
I4
sI19
I4
sI22
I5
sI23
I4
sI24
I3
sI25
I5
sI31
I3
sI39
I3
sI42
I4
sI44
I4
sI47
I5
sI50
I5
sI51
I3
sI55
I5
sI56
I5
sI58
I4
sI64
I5
sI65
I3
sI69
I4
sI70
I3
sI71
I5
sI82
I5
sI89
I4
sI91
I5
sI95
I4
sI96
I5
sI97
I5
sI98
I5
ssI469
(dp401
I64
I5
sI65
I4
sI10
I5
ssI470
(dp402
I1
I3
sI7
I3
sI9
I5
sI13
I4
sI50
I5
sI19
I4
sI93
I4
ssI471
(dp403
I1
I4
sI99
I2
sI71
I3
sI8
I5
sI82
I5
sI50
I3
sI94
I5
sI95
I4
ssI472
(dp404
I1
I5
sI2
I5
sI3
I5
sI4
I3
sI7
I5
sI11
I5
sI12
I5
sI21
I3
sI22
I5
sI24
I5
sI27
I4
sI28
I5
sI29
I5
sI33
I5
sI38
I4
sI41
I4
sI43
I4
sI49
I5
sI50
I5
sI51
I5
sI56
I5
sI62
I5
sI63
I4
sI64
I5
sI66
I5
sI67
I4
sI68
I5
sI69
I5
sI71
I2
sI72
I5
sI73
I4
sI78
I1
sI79
I5
sI80
I3
sI82
I5
sI88
I2
sI90
I5
sI91
I5
sI94
I5
sI95
I3
sI96
I5
sI97
I3
sI99
I3
ssI473
(dp405
I7
I2
sI9
I5
sI10
I3
sI14
I4
sI20
I3
sI25
I4
ssI474
(dp406
I4
I5
sI7
I5
sI8
I5
sI9
I5
sI11
I5
sI12
I5
sI13
I5
sI14
I5
sI15
I5
sI22
I4
sI23
I4
sI25
I5
sI26
I4
sI28
I4
sI31
I4
sI42
I4
sI44
I3
sI45
I5
sI47
I4
sI48
I4
sI50
I5
sI52
I4
sI55
I4
sI56
I5
sI58
I4
sI59
I3
sI60
I3
sI61
I3
sI64
I5
sI66
I4
sI68
I3
sI69
I5
sI70
I4
sI71
I5
sI72
I3
sI73
I3
sI76
I4
sI77
I5
sI79
I5
sI83
I3
sI86
I4
sI87
I4
sI88
I4
sI89
I5
sI92
I4
sI96
I4
sI97
I5
sI98
I5
sI99
I4
ssI475
(dp407
I50
I5
sI70
I4
ssI476
(dp408
I33
I4
sI66
I3
sI67
I4
sI4
I4
sI70
I3
sI72
I4
sI73
I4
sI42
I4
sI47
I3
sI80
I3
sI56
I4
sI83
I3
sI85
I2
sI88
I4
sI26
I4
sI90
I3
sI94
I2
sI63
I3
ssI477
(dp409
I66
I5
sI36
I4
sI15
I4
sI49
I5
sI20
I4
sI88
I5
sI25
I5
sI90
I4
ssI478
(dp410
I1
I4
sI7
I1
sI11
I4
sI12
I5
sI15
I5
sI17
I2
sI23
I2
sI26
I5
sI28
I3
sI32
I3
sI40
I1
sI41
I3
sI42
I5
sI48
I4
sI50
I3
sI64
I5
sI65
I4
sI68
I1
sI69
I3
sI71
I3
sI72
I1
sI77
I1
sI79
I4
sI81
I4
sI93
I4
sI96
I2
sI98
I5
ssI479
(dp411
I1
I5
sI8
I5
sI15
I3
sI22
I4
sI24
I3
sI28
I4
sI31
I4
sI32
I3
sI50
I4
sI54
I3
sI55
I4
sI58
I4
sI62
I3
sI66
I3
sI70
I4
sI71
I1
sI79
I4
sI82
I4
sI88
I4
sI89
I4
sI95
I4
sI96
I4
sI97
I3
ssI480
(dp412
I96
I4
sI64
I3
sI98
I4
sI8
I5
sI12
I5
sI79
I4
sI50
I4
sI56
I4
sI89
I4
ssI481
(dp413
I66
I3
sI4
I3
sI70
I5
sI8
I3
sI42
I3
sI98
I4
sI50
I4
sI86
I5
sI88
I4
ssI482
(dp414
I50
I4
ssI483
(dp415
I1
I4
sI99
I3
sI68
I1
sI9
I2
sI12
I2
sI50
I5
sI20
I2
sI91
I3
ssI484
(dp416
I1
I5
sI2
I4
sI4
I4
sI7
I4
sI9
I1
sI14
I4
sI15
I5
sI22
I5
sI24
I1
sI25
I3
sI28
I5
sI29
I3
sI38
I4
sI50
I5
sI51
I4
sI53
I1
sI56
I5
sI69
I5
sI70
I5
sI71
I2
sI73
I4
sI79
I5
sI82
I4
sI87
I5
sI88
I4
sI89
I4
sI94
I4
sI95
I4
sI96
I5
sI97
I5
sI98
I4
ssI486
(dp417
I1
I4
sI3
I2
sI6
I4
sI7
I5
sI9
I5
sI10
I4
sI13
I4
sI14
I5
sI15
I3
sI16
I3
sI50
I5
sI20
I3
sI21
I3
sI25
I4
sI93
I4
ssI487
(dp418
I1
I5
sI2
I3
sI3
I5
sI4
I4
sI11
I5
sI12
I5
sI17
I3
sI22
I5
sI24
I4
sI25
I1
sI27
I5
sI28
I4
sI31
I5
sI38
I2
sI42
I3
sI43
I3
sI45
I5
sI48
I2
sI49
I4
sI50
I4
sI53
I2
sI55
I5
sI56
I4
sI58
I5
sI62
I3
sI64
I5
sI66
I5
sI67
I3
sI68
I5
sI69
I4
sI70
I3
sI71
I3
sI73
I3
sI76
I4
sI77
I3
sI79
I5
sI81
I3
sI82
I5
sI85
I2
sI87
I5
sI88
I4
sI92
I4
sI94
I3
sI95
I4
sI96
I5
sI97
I5
sI98
I5
sI99
I4
ssI488
(dp419
I1
I3
sI8
I3
sI9
I4
sI11
I1
sI15
I4
sI22
I4
sI28
I4
sI31
I4
sI33
I2
sI50
I4
sI56
I4
sI58
I3
sI64
I5
sI69
I4
sI70
I3
sI71
I3
sI79
I4
sI82
I4
sI83
I4
sI87
I5
sI89
I4
sI96
I3
sI97
I4
sI98
I4
ssI490
(dp420
I1
I3
sI7
I3
sI9
I4
sI15
I1
sI50
I5
sI24
I4
sI93
I4
ssI491
(dp421
I7
I3
sI12
I5
sI45
I5
sI14
I2
sI19
I4
sI23
I2
ssI492
(dp422
I64
I4
sI97
I3
sI69
I3
sI45
I3
sI83
I4
sI86
I3
sI56
I5
ssI493
(dp423
I1
I3
sI7
I3
sI11
I3
sI12
I3
sI22
I5
sI24
I4
sI25
I4
sI48
I4
sI50
I5
sI56
I4
sI59
I5
sI60
I2
sI61
I4
sI65
I4
sI69
I5
sI71
I5
sI79
I5
sI82
I5
sI89
I4
sI91
I3
sI95
I5
sI96
I4
sI98
I4
ssI494
(dp424
I64
I5
sI1
I3
sI98
I4
sI65
I5
sI9
I2
sI15
I5
sI50
I5
sI86
I3
ssI495
(dp425
I1
I4
sI2
I2
sI4
I3
sI9
I5
sI11
I5
sI29
I2
sI44
I3
sI50
I5
sI53
I1
sI54
I5
sI55
I2
sI56
I5
sI62
I3
sI64
I5
sI67
I3
sI68
I5
sI69
I3
sI71
I5
sI77
I4
sI79
I5
sI80
I3
sI82
I5
sI84
I3
sI86
I5
sI88
I4
sI89
I3
sI90
I4
sI91
I2
sI94
I3
sI95
I3
sI96
I4
sI98
I5
ssI496
(dp426
I7
I4
sI10
I5
sI11
I4
sI17
I3
sI22
I4
sI28
I2
sI33
I4
sI38
I2
sI39
I5
sI42
I5
sI50
I5
sI53
I3
sI56
I5
sI64
I3
sI68
I4
sI77
I2
sI87
I5
sI88
I1
sI89
I5
sI94
I1
sI96
I4
sI97
I1
sI98
I4
sI99
I3
ssI497
(dp427
I1
I4
sI2
I1
sI3
I4
sI4
I3
sI7
I3
sI11
I3
sI12
I4
sI13
I2
sI19
I4
sI22
I5
sI24
I4
sI25
I4
sI28
I3
sI29
I4
sI31
I3
sI33
I4
sI38
I3
sI39
I3
sI42
I4
sI49
I3
sI50
I5
sI53
I3
sI54
I3
sI55
I3
sI56
I4
sI62
I4
sI63
I3
sI66
I3
sI67
I3
sI68
I4
sI70
I4
sI71
I4
sI72
I3
sI73
I3
sI77
I3
sI79
I4
sI80
I3
sI82
I4
sI83
I2
sI87
I3
sI89
I4
sI90
I4
sI91
I2
sI94
I3
sI95
I4
sI96
I4
sI97
I4
sI98
I4
sI99
I3
ssI498
(dp428
I32
I4
sI64
I4
sI98
I4
sI7
I3
sI9
I2
sI10
I5
sI11
I3
sI12
I4
sI77
I2
sI14
I4
sI79
I3
sI50
I4
sI83
I3
sI53
I4
sI54
I2
sI23
I4
sI56
I3
sI89
I5
sI59
I4
sI61
I4
ssI499
(dp429
I97
I4
sI98
I4
sI69
I5
sI7
I4
sI8
I5
sI11
I3
sI12
I5
sI50
I3
sI87
I4
sI56
I4
sI55
I4
ssI500
(dp430
I1
I4
sI3
I4
sI7
I5
sI8
I4
sI9
I4
sI10
I3
sI13
I5
sI15
I2
sI16
I4
sI25
I3
sI28
I3
sI30
I4
sI31
I4
sI39
I4
sI42
I5
sI43
I3
sI44
I1
sI45
I4
sI49
I4
sI50
I3
sI56
I5
sI58
I3
sI59
I4
sI60
I5
sI61
I4
sI62
I3
sI69
I4
sI70
I4
sI72
I4
sI77
I3
sI82
I4
sI83
I4
sI88
I4
sI89
I4
sI93
I4
sI94
I2
sI97
I4
sI98
I4
ssI501
(dp431
I24
I3
sI25
I3
sI13
I4
sI93
I4
sI7
I4
ssI503
(dp432
I1
I5
sI8
I5
sI10
I5
sI12
I3
sI13
I3
sI14
I3
sI19
I5
sI20
I5
sI25
I4
sI26
I2
sI38
I3
sI44
I5
sI45
I5
sI47
I5
sI50
I5
sI54
I2
sI58
I4
sI66
I3
sI69
I4
sI70
I4
sI79
I5
sI83
I5
sI86
I5
sI88
I4
sI97
I4
sI98
I5
ssI504
(dp433
I4
I4
sI5
I4
sI9
I4
sI25
I4
sI28
I4
sI38
I4
sI40
I4
sI44
I4
sI50
I3
sI51
I4
sI53
I4
sI54
I4
sI56
I3
sI58
I3
sI63
I3
sI65
I4
sI66
I4
sI67
I2
sI68
I5
sI69
I4
sI70
I3
sI71
I5
sI72
I4
sI75
I4
sI77
I4
sI82
I4
sI84
I3
sI88
I3
sI90
I3
sI94
I4
sI96
I4
sI97
I4
sI98
I5
sI99
I3
ssI505
(dp434
I96
I4
sI1
I3
sI66
I4
sI99
I4
sI97
I4
sI22
I5
sI7
I3
sI73
I4
sI71
I4
sI77
I3
sI79
I3
sI11
I4
sI88
I4
sI50
I3
sI82
I4
sI54
I3
sI56
I1
sI98
I4
sI95
I4
sI69
I3
sI31
I4
ssI506
(dp435
I2
I4
sI5
I4
sI8
I5
sI10
I2
sI12
I5
sI28
I4
sI29
I2
sI31
I4
sI33
I3
sI38
I3
sI42
I3
sI44
I4
sI46
I3
sI47
I4
sI48
I2
sI50
I5
sI53
I4
sI54
I4
sI55
I4
sI56
I4
sI58
I4
sI62
I3
sI63
I4
sI66
I4
sI67
I3
sI68
I4
sI69
I5
sI70
I4
sI71
I5
sI72
I3
sI73
I4
sI77
I3
sI79
I5
sI81
I1
sI82
I5
sI85
I3
sI86
I3
sI88
I4
sI89
I5
sI90
I2
sI92
I3
sI94
I3
sI95
I5
sI96
I4
sI97
I4
ssI507
(dp436
I50
I5
ssI508
(dp437
I96
I2
sI1
I5
sI98
I3
sI50
I5
sI69
I3
sI70
I4
sI73
I3
sI79
I2
sI13
I4
sI47
I3
sI82
I3
sI52
I4
sI23
I4
sI88
I3
sI91
I4
ssI509
(dp438
I50
I5
ssI512
(dp439
I1
I4
sI97
I5
sI11
I5
sI50
I5
sI23
I4
sI56
I5
ssI513
(dp440
I50
I5
ssI514
(dp441
I1
I5
sI4
I4
sI7
I5
sI10
I4
sI11
I4
sI12
I5
sI13
I3
sI14
I3
sI15
I4
sI19
I4
sI22
I4
sI24
I3
sI25
I4
sI26
I3
sI28
I5
sI31
I4
sI42
I5
sI45
I4
sI47
I4
sI48
I4
sI49
I2
sI50
I5
sI58
I4
sI64
I4
sI65
I3
sI68
I4
sI69
I4
sI70
I5
sI73
I4
sI79
I4
sI81
I4
sI83
I5
sI87
I5
sI88
I4
sI89
I4
sI95
I4
sI96
I5
sI97
I5
sI98
I5
ssI516
(dp442
I50
I5
ssI517
(dp443
I1
I3
sI50
I5
sI25
I2
ssI518
(dp444
I1
I4
sI7
I3
sI9
I3
sI10
I3
sI13
I4
sI14
I3
sI25
I5
ssI520
(dp445
I25
I4
ssI521
(dp446
I1
I2
sI2
I3
sI7
I3
sI8
I3
sI11
I4
sI12
I5
sI13
I2
sI17
I1
sI22
I4
sI23
I3
sI25
I2
sI28
I3
sI31
I3
sI33
I4
sI42
I5
sI50
I4
sI56
I4
sI68
I4
sI69
I3
sI72
I3
sI73
I3
sI77
I3
sI79
I4
sI81
I1
sI87
I3
sI89
I3
sI90
I2
sI95
I3
sI96
I4
sI97
I3
sI99
I3
ssI522
(dp447
I96
I3
sI11
I4
sI12
I5
sI79
I3
sI48
I4
sI23
I5
ssI523
(dp448
I1
I5
sI66
I4
sI3
I4
sI70
I5
sI97
I4
sI8
I5
sI9
I4
sI42
I3
sI67
I4
sI14
I5
sI72
I4
sI50
I5
sI83
I5
sI56
I3
sI25
I4
sI95
I4
ssI524
(dp449
I4
I4
sI6
I5
sI7
I2
sI12
I3
sI13
I4
sI14
I5
sI22
I3
sI23
I5
sI24
I3
sI29
I3
sI31
I4
sI32
I4
sI39
I5
sI42
I3
sI44
I4
sI47
I2
sI50
I4
sI52
I4
sI55
I2
sI56
I4
sI58
I4
sI60
I5
sI64
I2
sI65
I4
sI66
I3
sI69
I4
sI70
I4
sI71
I3
sI72
I4
sI76
I4
sI77
I3
sI79
I4
sI81
I1
sI82
I4
sI89
I5
sI92
I4
sI94
I2
sI95
I3
sI96
I4
sI97
I5
sI98
I3
ssI525
(dp450
I7
I3
sI1
I4
sI15
I4
sI14
I3
sI25
I5
ssI526
(dp451
I1
I5
sI50
I5
sI7
I4
ssI527
(dp452
I4
I2
sI7
I5
sI9
I5
sI11
I4
sI12
I4
sI14
I2
sI19
I3
sI22
I5
sI23
I5
sI28
I3
sI50
I4
sI56
I4
sI59
I5
sI60
I4
sI64
I3
sI69
I4
sI70
I4
sI86
I4
sI87
I3
sI91
I2
sI93
I4
sI96
I4
sI99
I3
ssI528
(dp453
I69
I3
sI82
I4
sI77
I3
sI50
I5
sI83
I5
sI56
I3
sI58
I5
sI79
I5
sI31
I5
ssI530
(dp454
I64
I5
sI98
I4
sI70
I4
sI88
I4
sI50
I4
sI56
I3
sI60
I5
ssI532
(dp455
I1
I5
sI2
I5
sI4
I5
sI7
I5
sI8
I5
sI9
I5
sI11
I5
sI12
I5
sI22
I5
sI24
I5
sI26
I3
sI29
I3
sI38
I3
sI44
I5
sI51
I5
sI52
I4
sI58
I4
sI66
I5
sI70
I4
sI72
I3
sI77
I5
sI79
I5
sI82
I5
sI87
I5
sI95
I5
sI96
I5
sI97
I5
sI98
I5
sI99
I5
ssI533
(dp456
I1
I4
sI4
I3
sI8
I3
sI9
I4
sI10
I2
sI12
I4
sI13
I3
sI14
I3
sI15
I4
sI19
I3
sI20
I5
sI21
I3
sI22
I4
sI23
I3
sI25
I4
sI26
I3
sI28
I4
sI31
I3
sI38
I2
sI43
I4
sI44
I4
sI47
I1
sI48
I4
sI50
I5
sI53
I1
sI54
I4
sI56
I3
sI58
I4
sI64
I5
sI65
I4
sI66
I4
sI69
I4
sI70
I4
sI71
I4
sI72
I2
sI77
I4
sI82
I4
sI83
I2
sI87
I4
sI88
I4
sI91
I2
sI94
I4
sI96
I4
sI97
I2
sI98
I4
ssI534
(dp457
I1
I5
sI3
I4
sI7
I4
sI15
I4
sI21
I4
sI24
I5
sI25
I5
sI93
I1
ssI535
(dp458
I1
I3
sI4
I3
sI7
I5
sI8
I4
sI9
I5
sI11
I4
sI14
I3
sI16
I4
sI22
I3
sI25
I4
sI30
I4
sI32
I3
sI39
I4
sI42
I3
sI44
I4
sI45
I3
sI47
I5
sI50
I5
sI52
I4
sI56
I3
sI58
I5
sI59
I3
sI60
I5
sI61
I3
sI64
I5
sI70
I4
sI71
I4
sI79
I3
sI83
I4
sI86
I4
sI87
I5
sI97
I4
sI98
I2
ssI536
(dp459
I1
I5
sI2
I4
sI8
I5
sI10
I4
sI21
I3
sI22
I5
sI28
I5
sI31
I3
sI49
I3
sI50
I5
sI52
I3
sI54
I2
sI56
I3
sI62
I4
sI63
I4
sI69
I5
sI70
I2
sI71
I5
sI73
I4
sI79
I4
sI80
I2
sI82
I4
sI83
I5
sI84
I4
sI86
I3
sI87
I3
sI88
I4
sI94
I4
sI95
I5
sI96
I4
sI97
I3
sI98
I4
ssI537
(dp460
I1
I2
sI3
I2
sI4
I2
sI6
I2
sI7
I4
sI10
I4
sI11
I3
sI12
I3
sI13
I4
sI14
I4
sI15
I3
sI19
I4
sI20
I3
sI22
I2
sI23
I4
sI24
I1
sI25
I2
sI26
I3
sI28
I3
sI30
I3
sI32
I3
sI39
I2
sI42
I3
sI44
I3
sI45
I3
sI46
I3
sI47
I4
sI48
I4
sI50
I4
sI52
I3
sI53
I2
sI56
I5
sI58
I4
sI59
I3
sI60
I3
sI61
I4
sI64
I3
sI65
I3
sI69
I2
sI70
I4
sI72
I1
sI76
I3
sI79
I3
sI81
I3
sI82
I2
sI83
I4
sI85
I2
sI86
I4
sI87
I3
sI88
I2
sI89
I4
sI90
I1
sI91
I2
sI92
I3
sI93
I3
sI95
I1
sI96
I3
sI97
I2
sI98
I3
sI99
I2
ssI538
(dp461
I96
I4
sI97
I5
sI98
I5
sI4
I3
sI69
I5
sI42
I1
sI11
I4
sI12
I4
sI50
I5
sI79
I4
sI88
I2
sI82
I4
sI22
I5
sI56
I4
sI89
I4
sI58
I4
sI28
I3
sI31
I3
ssI539
(dp462
I69
I5
sI45
I4
sI50
I3
sI19
I5
sI22
I3
sI56
I2
sI58
I3
sI59
I5
ssI540
(dp463
I1
I3
sI7
I4
sI9
I5
sI13
I4
sI15
I3
sI50
I5
sI20
I4
sI25
I4
ssI541
(dp464
I95
I4
sI1
I4
sI66
I4
sI99
I4
sI38
I3
sI71
I5
sI8
I5
sI73
I4
sI79
I5
sI50
I5
sI15
I3
sI82
I3
sI83
I5
sI88
I3
sI90
I4
sI91
I5
sI28
I4
sI29
I2
sI62
I4
sI63
I3
ssI542
(dp465
I1
I4
sI8
I3
sI11
I2
sI12
I4
sI13
I4
sI15
I2
sI22
I3
sI23
I5
sI28
I4
sI41
I4
sI42
I3
sI47
I5
sI48
I5
sI50
I4
sI56
I5
sI58
I4
sI63
I3
sI64
I4
sI69
I4
sI70
I4
sI71
I3
sI72
I3
sI73
I3
sI80
I3
sI87
I3
sI88
I3
sI89
I4
sI90
I4
sI94
I3
sI95
I3
sI97
I4
sI99
I5
ssI543
(dp466
I2
I3
sI4
I4
sI8
I4
sI9
I4
sI11
I3
sI12
I5
sI13
I3
sI14
I4
sI15
I3
sI16
I3
sI22
I3
sI23
I4
sI24
I3
sI28
I4
sI29
I2
sI38
I3
sI44
I3
sI47
I3
sI53
I3
sI56
I5
sI59
I4
sI60
I5
sI61
I4
sI62
I3
sI64
I4
sI66
I3
sI69
I4
sI70
I4
sI71
I4
sI79
I4
sI82
I4
sI83
I4
sI85
I2
sI86
I4
sI88
I4
sI89
I4
sI94
I3
sI95
I3
sI96
I4
sI97
I3
sI98
I4
ssI545
(dp467
I1
I5
sI17
I3
sI22
I3
sI25
I2
sI28
I4
sI29
I3
sI31
I4
sI50
I5
sI54
I4
sI55
I3
sI62
I5
sI67
I1
sI68
I4
sI69
I4
sI71
I5
sI73
I4
sI77
I3
sI78
I2
sI79
I4
sI80
I3
sI82
I4
sI88
I3
sI89
I3
sI94
I3
sI95
I4
sI96
I5
sI97
I3
sI98
I5
sI99
I4
ssI546
(dp468
I98
I5
sI5
I5
sI7
I5
sI17
I4
sI50
I5
sI53
I5
sI56
I5
ssI548
(dp469
I1
I4
sI98
I5
sI3
I1
sI39
I5
sI9
I1
sI7
I5
sI12
I5
sI13
I1
sI14
I1
sI79
I5
sI17
I3
sI50
I5
sI25
I2
sI23
I5
sI56
I5
sI55
I5
sI15
I2
sI31
I5
ssI549
(dp470
I24
I3
sI1
I5
sI50
I5
ssI550
(dp471
I1
I3
sI50
I5
sI15
I5
ssI551
(dp472
I2
I2
sI3
I5
sI4
I2
sI5
I4
sI7
I5
sI9
I5
sI11
I5
sI12
I4
sI13
I1
sI15
I5
sI17
I5
sI22
I5
sI24
I5
sI25
I1
sI26
I4
sI28
I4
sI31
I4
sI33
I5
sI34
I4
sI38
I1
sI40
I1
sI42
I5
sI43
I2
sI44
I4
sI49
I3
sI50
I2
sI51
I5
sI54
I3
sI55
I5
sI56
I5
sI58
I5
sI62
I5
sI64
I5
sI66
I2
sI67
I5
sI68
I2
sI69
I4
sI70
I4
sI71
I4
sI72
I5
sI73
I2
sI76
I4
sI77
I3
sI79
I5
sI80
I1
sI82
I5
sI84
I1
sI85
I1
sI88
I4
sI89
I4
sI90
I1
sI91
I1
sI92
I5
sI95
I5
sI96
I5
sI97
I5
sI98
I5
ssI552
(dp473
I1
I3
sI7
I3
sI13
I3
sI14
I4
sI15
I3
sI50
I4
sI25
I3
ssI553
(dp474
I1
I3
sI98
I5
sI99
I5
sI22
I5
sI8
I3
sI45
I4
sI81
I3
sI50
I4
sI86
I3
sI23
I5
sI56
I4
sI89
I5
ssI554
(dp475
I1
I3
sI4
I2
sI7
I3
sI8
I4
sI9
I4
sI11
I4
sI13
I2
sI14
I4
sI15
I4
sI21
I1
sI22
I4
sI28
I4
sI31
I4
sI43
I3
sI50
I4
sI56
I4
sI58
I4
sI66
I3
sI67
I3
sI68
I2
sI69
I5
sI70
I4
sI71
I4
sI77
I4
sI79
I5
sI82
I4
sI86
I4
sI87
I4
sI95
I4
sI98
I5
ssI555
(dp476
I7
I4
sI87
I4
sI13
I5
sI47
I2
sI50
I5
sI21
I4
sI89
I4
sI25
I4
ssI556
(dp477
I48
I5
sI64
I5
sI12
I5
ssI557
(dp478
I8
I5
sI96
I5
sI58
I4
sI12
I5
sI50
I4
ssI558
(dp479
I9
I4
sI19
I5
sI20
I5
sI14
I4
sI15
I3
ssI559
(dp480
I4
I4
sI69
I5
sI70
I3
sI73
I4
sI55
I4
sI12
I3
sI22
I1
sI87
I4
sI56
I3
sI94
I3
ssI560
(dp481
I1
I4
sI7
I3
sI11
I4
sI12
I5
sI13
I3
sI50
I5
sI22
I2
sI89
I5
sI24
I2
sI25
I3
sI58
I3
sI93
I3
ssI561
(dp482
I1
I2
sI2
I3
sI3
I3
sI4
I3
sI7
I5
sI8
I3
sI9
I4
sI10
I3
sI11
I4
sI12
I5
sI13
I3
sI14
I3
sI15
I3
sI17
I2
sI19
I3
sI22
I3
sI23
I5
sI24
I3
sI25
I2
sI28
I2
sI31
I2
sI32
I4
sI40
I2
sI42
I3
sI45
I3
sI46
I4
sI47
I4
sI48
I4
sI49
I2
sI50
I3
sI51
I3
sI52
I4
sI53
I3
sI55
I4
sI56
I5
sI58
I3
sI62
I3
sI64
I3
sI65
I3
sI67
I1
sI69
I1
sI70
I4
sI71
I2
sI72
I2
sI77
I1
sI79
I3
sI80
I2
sI81
I2
sI86
I4
sI87
I3
sI88
I2
sI89
I4
sI91
I4
sI92
I3
sI93
I4
sI95
I2
sI96
I1
sI97
I3
sI98
I4
sI99
I3
ssI562
(dp483
I1
I2
sI66
I1
sI4
I1
sI5
I4
sI73
I4
sI98
I4
sI79
I4
sI88
I5
sI50
I5
sI82
I5
sI56
I1
sI89
I1
ssI563
(dp484
I50
I5
sI70
I4
ssI564
(dp485
I50
I4
ssI565
(dp486
I70
I5
sI10
I5
sI83
I5
sI52
I5
sI86
I5
sI30
I5
ssI566
(dp487
I2
I5
sI7
I4
sI8
I4
sI11
I3
sI12
I4
sI15
I3
sI20
I4
sI22
I3
sI23
I4
sI25
I2
sI31
I3
sI33
I2
sI49
I2
sI50
I2
sI54
I3
sI56
I4
sI64
I5
sI69
I4
sI70
I4
sI71
I2
sI77
I4
sI78
I1
sI80
I3
sI82
I4
sI83
I4
sI86
I4
sI88
I3
sI89
I4
sI94
I2
sI95
I2
sI96
I3
sI97
I3
sI98
I4
ssI567
(dp488
I32
I5
sI1
I3
sI59
I5
sI7
I4
sI9
I4
sI10
I4
sI39
I3
sI12
I4
sI96
I4
sI47
I4
sI50
I1
sI83
I4
sI23
I4
sI56
I4
sI89
I5
sI79
I2
sI60
I5
ssI568
(dp489
I56
I4
sI59
I1
sI30
I4
sI6
I3
sI79
I4
ssI569
(dp490
I1
I4
sI3
I1
sI7
I4
sI9
I5
sI13
I3
sI14
I4
sI15
I4
sI16
I3
sI50
I5
sI19
I5
sI25
I4
ssI571
(dp491
I64
I4
sI32
I2
sI45
I4
sI69
I2
sI47
I3
ssI572
(dp492
I9
I5
sI13
I4
sI14
I4
ssI573
(dp493
I10
I4
sI50
I4
sI69
I4
sI22
I4
ssI575
(dp494
I96
I5
sI50
I2
sI98
I4
sI79
I5
ssI576
(dp495
I1
I4
sI70
I5
sI7
I5
sI9
I3
sI15
I4
sI50
I4
sI56
I3
ssI577
(dp496
I1
I5
sI4
I4
sI5
I4
sI7
I2
sI8
I4
sI11
I2
sI12
I4
sI15
I3
sI22
I5
sI25
I4
sI28
I5
sI29
I3
sI31
I4
sI38
I2
sI40
I4
sI44
I3
sI48
I5
sI49
I4
sI50
I4
sI54
I4
sI55
I3
sI56
I3
sI58
I4
sI62
I3
sI63
I4
sI64
I5
sI65
I5
sI68
I4
sI69
I4
sI71
I5
sI77
I3
sI79
I4
sI82
I4
sI85
I3
sI87
I5
sI88
I3
sI95
I5
sI96
I4
sI97
I5
sI98
I4
sI99
I3
ssI579
(dp497
I1
I4
sI98
I4
sI50
I5
sI4
I2
sI69
I2
sI70
I3
sI65
I3
sI7
I3
sI66
I4
sI49
I3
sI82
I3
sI83
I5
sI25
I4
sI56
I3
sI89
I3
sI88
I4
ssI580
(dp498
I1
I3
sI3
I5
sI7
I3
sI15
I3
sI50
I5
sI25
I3
ssI581
(dp499
I9
I5
sI50
I4
sI7
I4
ssI582
(dp500
I1
I4
sI3
I3
sI7
I5
sI15
I3
sI50
I5
sI25
I3
sI93
I5
ssI583
(dp501
I55
I4
sI83
I4
sI12
I5
sI7
I5
ssI584
(dp502
I40
I4
sI25
I3
sI82
I3
sI50
I4
ssI585
(dp503
I83
I3
sI70
I5
sI10
I3
sI45
I5
sI14
I4
sI18
I2
sI19
I3
sI52
I3
sI86
I5
sI20
I4
sI59
I4
sI60
I4
sI61
I4
sI30
I4
ssI586
(dp504
I3
I5
sI11
I3
sI17
I5
sI22
I3
sI23
I2
sI27
I3
sI28
I3
sI29
I5
sI31
I4
sI33
I5
sI39
I4
sI44
I3
sI50
I4
sI51
I4
sI53
I5
sI54
I3
sI56
I5
sI67
I5
sI68
I4
sI69
I4
sI72
I2
sI76
I5
sI77
I3
sI79
I4
sI80
I2
sI82
I2
sI83
I2
sI85
I3
sI92
I3
sI96
I4
ssI588
(dp505
I1
I4
sI7
I3
sI8
I5
sI12
I5
sI15
I5
sI21
I5
sI22
I5
sI24
I2
sI25
I4
sI28
I5
sI29
I3
sI31
I3
sI40
I4
sI42
I5
sI50
I5
sI51
I4
sI56
I4
sI62
I2
sI63
I5
sI66
I3
sI67
I1
sI68
I5
sI69
I2
sI71
I4
sI72
I4
sI73
I3
sI79
I4
sI82
I5
sI83
I5
sI85
I5
sI88
I5
sI91
I5
sI94
I2
sI95
I4
sI97
I2
sI98
I1
sI99
I5
ssI590
(dp506
I6
I5
sI9
I3
sI13
I4
sI14
I5
sI15
I3
sI19
I5
ssI591
(dp507
I64
I5
sI45
I5
sI66
I2
sI70
I4
sI72
I3
sI8
I3
sI13
I4
sI47
I3
sI48
I4
sI88
I3
sI85
I3
sI86
I5
sI4
I4
sI56
I4
sI25
I4
sI26
I3
sI79
I4
sI94
I3
ssI592
(dp508
I1
I4
sI3
I4
sI4
I4
sI7
I5
sI8
I5
sI9
I5
sI11
I5
sI12
I5
sI13
I5
sI14
I5
sI15
I5
sI20
I4
sI22
I5
sI23
I5
sI24
I4
sI28
I4
sI32
I5
sI42
I5
sI47
I5
sI48
I5
sI50
I5
sI55
I4
sI56
I5
sI58
I5
sI59
I4
sI60
I4
sI61
I4
sI64
I5
sI69
I5
sI70
I4
sI71
I4
sI79
I4
sI81
I4
sI87
I4
sI89
I4
sI92
I5
sI93
I4
sI95
I4
sI96
I5
sI97
I4
sI98
I5
sI99
I5
ssI593
(dp509
I1
I3
sI4
I4
sI5
I4
sI8
I3
sI9
I3
sI11
I4
sI15
I4
sI25
I3
sI26
I4
sI40
I1
sI49
I3
sI50
I4
sI51
I3
sI56
I5
sI58
I4
sI65
I3
sI66
I5
sI69
I5
sI70
I5
sI71
I4
sI73
I2
sI77
I4
sI79
I4
sI83
I5
sI88
I4
sI97
I4
sI98
I5
ssI594
(dp510
I50
I3
sI19
I3
sI14
I4
sI15
I4
ssI595
(dp511
I9
I4
sI50
I5
sI3
I4
sI14
I5
sI15
I4
ssI596
(dp512
I50
I5
sI13
I2
ssI597
(dp513
I24
I3
sI1
I3
sI50
I5
sI15
I5
ssI598
(dp514
I22
I5
ssI599
(dp515
I1
I4
ssI600
(dp516
I96
I5
sI2
I3
sI4
I4
sI38
I3
sI11
I5
sI82
I5
sI79
I4
sI50
I4
sI53
I4
sI22
I5
sI56
I5
sI89
I5
sI27
I3
sI92
I3
sI29
I2
sI62
I4
ssI601
(dp517
I64
I4
sI96
I2
sI98
I3
sI99
I3
sI69
I3
sI65
I4
sI71
I1
sI8
I3
sI15
I1
sI39
I1
sI12
I3
sI82
I1
sI47
I3
sI50
I5
sI9
I4
sI21
I3
sI22
I4
sI87
I4
sI56
I3
sI58
I1
sI91
I5
ssI602
(dp518
I9
I4
sI50
I5
sI1
I4
ssI603
(dp519
I7
I5
sI11
I5
sI12
I5
sI50
I5
sI21
I3
sI22
I4
sI56
I4
sI89
I5
sI62
I2
ssI604
(dp520
I48
I5
sI56
I2
sI98
I2
sI5
I2
sI7
I4
ssI605
(dp521
I64
I5
sI1
I4
sI98
I5
sI69
I5
sI70
I3
sI9
I4
sI12
I4
sI14
I5
sI15
I5
sI22
I4
sI79
I5
ssI606
(dp522
I1
I5
sI3
I5
sI7
I4
sI8
I2
sI11
I5
sI12
I2
sI15
I5
sI22
I5
sI24
I5
sI25
I5
sI28
I4
sI31
I4
sI33
I4
sI38
I4
sI42
I3
sI48
I4
sI50
I5
sI55
I4
sI56
I5
sI58
I3
sI63
I3
sI64
I5
sI68
I5
sI69
I4
sI71
I5
sI79
I3
sI81
I3
sI82
I5
sI83
I5
sI87
I4
sI88
I4
sI89
I5
sI91
I5
sI93
I4
sI95
I4
sI96
I5
sI97
I5
sI98
I5
sI99
I4
ssI607
(dp523
I56
I5
sI30
I4
sI19
I3
sI45
I4
sI86
I4
ssI608
(dp524
I4
I3
sI8
I2
sI9
I4
sI11
I5
sI16
I2
sI22
I4
sI23
I5
sI25
I4
sI28
I4
sI42
I5
sI44
I4
sI50
I1
sI56
I5
sI58
I2
sI59
I5
sI61
I5
sI64
I4
sI65
I5
sI69
I4
sI70
I4
sI76
I4
sI79
I5
sI83
I5
sI86
I5
sI92
I3
sI93
I4
sI97
I3
sI98
I5
ssI609
(dp525
I1
I1
sI15
I5
ssI610
(dp526
I97
I3
sI98
I5
sI1
I4
sI70
I4
sI7
I2
sI8
I4
sI9
I3
sI11
I4
sI12
I5
sI66
I3
sI79
I3
sI50
I4
sI51
I5
sI56
I3
sI71
I4
sI28
I4
sI95
I2
ssI612
(dp527
I9
I3
sI7
I3
sI1
I4
sI25
I3
sI15
I4
ssI613
(dp528
I64
I5
sI1
I4
sI12
I5
sI50
I5
sI89
I5
sI28
I3
ssI614
(dp529
I25
I1
sI7
I2
sI1
I5
sI14
I3
sI9
I4
ssI615
(dp530
I97
I4
sI86
I5
sI69
I4
sI70
I4
sI72
I2
sI87
I4
sI13
I4
sI14
I5
sI48
I5
sI83
I4
sI22
I4
sI23
I5
sI26
I4
sI28
I4
ssI617
(dp531
I98
I2
sI7
I3
sI74
I5
sI17
I1
sI53
I1
sI56
I1
sI89
I4
ssI618
(dp532
I1
I4
sI2
I2
sI4
I2
sI7
I4
sI8
I3
sI9
I3
sI11
I4
sI12
I4
sI15
I3
sI22
I4
sI23
I5
sI24
I2
sI25
I2
sI28
I4
sI31
I4
sI33
I2
sI44
I4
sI49
I3
sI50
I5
sI52
I3
sI54
I3
sI55
I2
sI56
I4
sI62
I2
sI64
I4
sI65
I3
sI66
I4
sI68
I3
sI69
I4
sI70
I3
sI71
I4
sI73
I3
sI77
I3
sI79
I5
sI82
I4
sI87
I3
sI88
I4
sI90
I1
sI91
I4
sI93
I3
sI95
I3
sI96
I3
sI97
I5
sI98
I5
sI99
I3
ssI619
(dp533
I96
I5
sI33
I3
sI68
I3
sI39
I2
sI11
I2
sI82
I5
sI79
I5
sI17
I1
sI50
I4
sI53
I2
sI22
I5
sI55
I1
sI56
I3
sI27
I4
sI29
I1
sI62
I1
ssI620
(dp534
I1
I5
sI98
I4
sI35
I3
sI71
I5
sI8
I3
sI95
I4
sI7
I4
sI50
I4
sI78
I4
sI15
I5
sI82
I5
sI99
I3
sI91
I2
sI28
I4
sI94
I5
sI63
I5
ssI621
(dp535
I1
I3
sI2
I3
sI3
I5
sI4
I4
sI7
I4
sI8
I5
sI17
I4
sI24
I4
sI25
I4
sI28
I4
sI33
I4
sI38
I3
sI40
I3
sI41
I4
sI50
I5
sI53
I4
sI55
I5
sI62
I4
sI63
I1
sI65
I3
sI67
I4
sI68
I4
sI71
I3
sI72
I2
sI73
I5
sI79
I5
sI80
I4
sI82
I5
sI87
I5
sI88
I2
sI91
I3
sI94
I2
sI95
I4
sI96
I5
ssI622
(dp536
I1
I3
sI2
I4
sI3
I1
sI4
I4
sI7
I5
sI8
I4
sI9
I4
sI11
I4
sI12
I5
sI15
I4
sI22
I4
sI24
I4
sI28
I3
sI29
I4
sI30
I4
sI31
I3
sI41
I3
sI46
I4
sI47
I3
sI49
I3
sI50
I5
sI56
I5
sI62
I4
sI64
I5
sI66
I3
sI67
I1
sI69
I4
sI70
I3
sI72
I3
sI79
I5
sI80
I3
sI82
I3
sI83
I5
sI86
I4
sI88
I3
sI89
I5
sI90
I4
sI94
I2
sI95
I4
sI96
I5
sI98
I5
sI99
I4
ssI623
(dp537
I66
I4
sI70
I4
sI15
I4
sI50
I5
sI88
I4
sI79
I5
ssI624
(dp538
I1
I4
sI3
I3
sI7
I4
sI14
I5
sI15
I4
sI50
I5
sI24
I3
sI25
I4
sI93
I5
ssI625
(dp539
I96
I5
sI97
I4
sI4
I4
sI70
I3
sI50
I5
sI22
I3
sI23
I4
sI25
I2
sI91
I4
sI95
I3
ssI627
(dp540
I2
I3
sI4
I2
sI7
I5
sI9
I4
sI11
I4
sI12
I4
sI17
I2
sI22
I5
sI23
I4
sI26
I3
sI27
I3
sI28
I3
sI33
I1
sI39
I4
sI47
I2
sI51
I5
sI52
I3
sI53
I4
sI55
I4
sI56
I2
sI58
I5
sI62
I4
sI64
I5
sI68
I4
sI69
I3
sI70
I4
sI76
I3
sI77
I2
sI79
I3
sI82
I4
sI83
I3
sI86
I3
sI89
I5
sI92
I4
sI96
I3
sI97
I2
ssI628
(dp541
I8
I2
ssI629
(dp542
I64
I5
sI98
I5
sI4
I3
sI69
I5
sI7
I2
sI9
I4
sI42
I2
sI11
I2
sI12
I5
sI86
I5
sI15
I5
sI81
I3
sI50
I5
sI56
I5
sI22
I5
sI87
I5
sI23
I5
sI55
I4
sI58
I4
sI92
I4
sI39
I2
ssI630
(dp543
I96
I4
sI1
I4
sI98
I5
sI11
I5
sI69
I3
sI70
I2
sI71
I3
sI64
I5
sI9
I2
sI7
I4
sI12
I4
sI15
I3
sI50
I3
sI22
I3
sI25
I2
sI31
I2
ssI632
(dp544
I1
I3
sI2
I4
sI7
I3
sI11
I4
sI12
I5
sI17
I3
sI22
I4
sI25
I1
sI28
I3
sI50
I5
sI51
I4
sI54
I3
sI55
I2
sI56
I3
sI58
I3
sI64
I5
sI68
I1
sI69
I4
sI71
I4
sI73
I3
sI79
I5
sI81
I5
sI82
I4
sI91
I3
sI95
I5
sI96
I5
sI97
I4
sI98
I4
sI99
I5
ssI633
(dp545
I96
I4
sI97
I3
sI98
I4
sI82
I4
sI5
I3
sI71
I3
sI45
I3
sI77
I3
sI79
I5
sI50
I4
sI56
I2
sI28
I4
sI94
I4
ssI634
(dp546
I1
I3
sI7
I4
sI9
I5
sI13
I4
sI14
I3
sI15
I4
sI50
I4
sI21
I2
sI25
I4
sI93
I5
ssI635
(dp547
I1
I4
sI13
I2
sI15
I3
ssI636
(dp548
I1
I3
sI10
I5
sI15
I5
sI25
I5
sI9
I3
ssI637
(dp549
I1
I4
sI7
I1
sI9
I1
sI13
I1
sI15
I4
sI50
I4
sI24
I2
sI25
I4
sI93
I3
ssI638
(dp550
I96
I4
sI98
I3
sI4
I4
sI82
I2
sI50
I4
sI22
I5
sI89
I4
sI29
I2
sI62
I3
ssI639
(dp551
I19
I4
sI97
I1
sI66
I3
sI70
I3
sI60
I3
sI83
I4
sI12
I3
sI98
I4
sI14
I5
sI48
I4
sI51
I2
sI52
I3
sI86
I4
sI87
I3
sI88
I3
sI57
I3
sI58
I3
sI59
I3
sI28
I4
sI61
I3
ssI640
(dp552
I2
I4
sI4
I4
sI11
I4
sI12
I5
sI14
I4
sI22
I4
sI33
I3
sI38
I4
sI42
I5
sI47
I4
sI53
I4
sI55
I5
sI56
I5
sI62
I3
sI64
I5
sI66
I4
sI68
I4
sI70
I4
sI79
I5
sI81
I5
sI85
I5
sI91
I4
sI92
I4
sI96
I5
ssI641
(dp553
I64
I4
sI50
I3
sI83
I4
sI23
I5
sI89
I4
sI59
I4
sI30
I4
ssI642
(dp554
I1
I5
sI2
I4
sI4
I3
sI8
I5
sI13
I4
sI15
I5
sI21
I5
sI22
I4
sI28
I5
sI29
I5
sI35
I2
sI38
I4
sI40
I4
sI41
I3
sI44
I3
sI49
I4
sI50
I5
sI51
I5
sI53
I2
sI54
I4
sI56
I4
sI58
I3
sI63
I3
sI64
I5
sI65
I4
sI66
I5
sI67
I4
sI68
I3
sI69
I5
sI70
I2
sI71
I5
sI72
I4
sI73
I4
sI78
I3
sI80
I5
sI82
I5
sI83
I5
sI88
I5
sI89
I2
sI90
I4
sI91
I4
sI94
I2
sI95
I5
sI96
I5
sI97
I4
sI99
I2
ssI643
(dp555
I1
I5
sI2
I3
sI4
I4
sI5
I3
sI7
I4
sI11
I4
sI12
I5
sI23
I5
sI24
I4
sI28
I4
sI29
I2
sI32
I4
sI33
I3
sI39
I4
sI42
I4
sI47
I4
sI49
I3
sI50
I4
sI53
I4
sI55
I4
sI56
I5
sI58
I4
sI65
I4
sI66
I3
sI67
I4
sI68
I3
sI69
I3
sI70
I3
sI72
I4
sI77
I3
sI79
I4
sI82
I3
sI87
I5
sI88
I2
sI89
I3
sI92
I4
sI94
I4
sI96
I5
sI98
I3
sI99
I4
ssI644
(dp556
I50
I4
ssI645
(dp557
I4
I4
sI11
I4
sI22
I4
sI23
I5
sI28
I4
sI30
I4
sI32
I5
sI39
I3
sI46
I5
sI47
I4
sI48
I4
sI50
I4
sI55
I3
sI56
I3
sI59
I5
sI60
I5
sI61
I5
sI64
I3
sI65
I4
sI69
I4
sI70
I4
sI72
I3
sI73
I3
sI81
I4
sI87
I4
sI89
I4
sI91
I3
sI92
I3
sI96
I3
sI98
I4
ssI647
(dp558
I70
I3
sI71
I4
sI72
I4
sI73
I5
sI77
I4
sI15
I4
sI82
I4
sI22
I5
sI88
I4
sI79
I4
sI29
I4
ssI648
(dp559
I1
I5
sI2
I4
sI4
I1
sI5
I4
sI7
I3
sI9
I1
sI13
I3
sI14
I2
sI15
I1
sI17
I2
sI21
I3
sI22
I4
sI23
I3
sI24
I3
sI25
I2
sI28
I5
sI29
I2
sI33
I1
sI38
I5
sI39
I3
sI40
I4
sI47
I2
sI49
I2
sI50
I5
sI56
I1
sI62
I5
sI63
I4
sI66
I5
sI67
I4
sI68
I1
sI69
I1
sI70
I2
sI71
I3
sI72
I4
sI79
I5
sI82
I5
sI83
I4
sI88
I4
sI89
I4
sI90
I3
sI94
I5
sI95
I3
sI96
I5
sI98
I4
ssI649
(dp560
I24
I4
sI1
I5
sI50
I4
sI15
I4
ssI650
(dp561
I1
I3
sI2
I3
sI4
I3
sI7
I4
sI15
I3
sI21
I2
sI22
I3
sI23
I3
sI25
I3
sI27
I3
sI29
I2
sI38
I3
sI50
I5
sI54
I2
sI55
I4
sI56
I3
sI62
I3
sI63
I2
sI66
I3
sI68
I3
sI69
I2
sI71
I3
sI72
I2
sI73
I3
sI77
I3
sI79
I3
sI80
I2
sI82
I3
sI88
I3
sI89
I4
sI91
I4
sI95
I3
sI96
I4
sI97
I3
sI98
I4
sI99
I4
ssI652
(dp562
I96
I4
ssI653
(dp563
I1
I4
sI2
I1
sI4
I3
sI7
I2
sI11
I2
sI15
I3
sI22
I5
sI28
I4
sI38
I3
sI42
I2
sI50
I5
sI53
I2
sI54
I3
sI55
I3
sI56
I5
sI62
I3
sI63
I2
sI64
I4
sI69
I4
sI70
I2
sI76
I3
sI77
I3
sI79
I4
sI81
I1
sI82
I4
sI83
I5
sI87
I4
sI88
I3
sI89
I5
sI94
I2
sI96
I4
sI97
I3
sI98
I2
ssI654
(dp564
I1
I4
sI3
I3
sI4
I4
sI8
I5
sI11
I4
sI12
I5
sI13
I1
sI14
I2
sI15
I3
sI22
I5
sI24
I4
sI25
I1
sI28
I5
sI50
I5
sI54
I3
sI56
I4
sI66
I4
sI69
I4
sI70
I4
sI71
I3
sI79
I5
sI81
I2
sI82
I5
sI83
I5
sI87
I4
sI95
I4
sI97
I3
sI98
I5
ssI655
(dp565
I1
I2
sI2
I3
sI4
I2
sI5
I2
sI6
I4
sI7
I3
sI8
I3
sI9
I3
sI11
I2
sI12
I3
sI13
I3
sI14
I3
sI15
I3
sI18
I3
sI19
I2
sI20
I3
sI21
I2
sI22
I2
sI23
I3
sI24
I3
sI25
I3
sI26
I3
sI27
I3
sI28
I3
sI30
I5
sI31
I3
sI32
I4
sI36
I2
sI38
I2
sI42
I3
sI43
I3
sI44
I2
sI45
I3
sI46
I4
sI47
I3
sI48
I4
sI49
I1
sI50
I4
sI51
I2
sI52
I3
sI53
I2
sI54
I2
sI55
I2
sI56
I3
sI57
I3
sI58
I3
sI59
I4
sI60
I3
sI61
I3
sI64
I4
sI65
I2
sI66
I2
sI69
I3
sI70
I2
sI76
I3
sI77
I3
sI79
I5
sI81
I3
sI82
I2
sI86
I4
sI87
I3
sI88
I2
sI89
I4
sI92
I3
sI93
I3
sI96
I3
sI97
I3
sI98
I4
ssI657
(dp566
I1
I3
sI7
I3
sI9
I4
ssI658
(dp567
I96
I4
sI1
I4
sI98
I4
sI69
I4
sI70
I3
sI32
I3
sI8
I5
sI9
I4
sI42
I4
sI7
I4
sI45
I5
sI24
I3
sI50
I4
sI86
I4
sI55
I4
sI56
I5
sI22
I4
sI31
I3
ssI659
(dp568
I4
I3
sI7
I3
sI13
I4
sI23
I5
sI43
I4
sI49
I3
sI50
I3
sI56
I5
sI58
I4
sI62
I4
sI64
I4
sI66
I4
sI69
I3
sI70
I4
sI73
I4
sI76
I4
sI77
I4
sI79
I4
sI82
I4
sI86
I5
sI88
I2
sI89
I4
sI90
I2
sI96
I4
sI97
I5
sI98
I4
ssI660
(dp569
I1
I3
sI2
I2
sI3
I1
sI7
I3
sI8
I2
sI17
I1
sI21
I3
sI22
I4
sI24
I3
sI29
I2
sI33
I2
sI38
I2
sI40
I2
sI41
I1
sI47
I2
sI50
I4
sI56
I1
sI62
I2
sI63
I2
sI64
I3
sI67
I1
sI68
I4
sI71
I2
sI72
I3
sI79
I2
sI80
I1
sI82
I2
sI83
I3
sI84
I2
sI87
I2
sI89
I3
sI90
I2
sI91
I4
sI94
I2
sI95
I2
sI96
I3
sI97
I3
sI98
I4
sI99
I2
ssI661
(dp570
I64
I4
sI97
I4
sI1
I5
sI69
I4
sI70
I4
sI71
I4
sI8
I5
sI96
I4
sI79
I5
sI48
I4
sI50
I5
sI52
I4
sI86
I4
sI89
I5
sI58
I4
sI31
I3
sI28
I5
sI95
I5
ssI662
(dp571
I50
I3
sI10
I4
sI93
I5
sI6
I5
sI13
I4
ssI663
(dp572
I96
I5
sI1
I4
sI98
I5
sI3
I4
sI69
I4
sI7
I4
sI64
I5
sI9
I2
sI42
I5
sI11
I5
sI12
I5
sI13
I3
sI47
I4
sI50
I5
sI89
I4
sI23
I4
sI56
I5
sI25
I4
sI15
I4
sI31
I4
ssI664
(dp573
I1
I4
sI4
I4
sI7
I3
sI12
I5
sI14
I4
sI22
I2
sI31
I4
sI45
I4
sI47
I4
sI50
I5
sI52
I5
sI53
I3
sI54
I3
sI56
I4
sI57
I4
sI58
I4
sI64
I4
sI69
I3
sI70
I3
sI71
I4
sI73
I2
sI77
I3
sI79
I4
sI81
I5
sI83
I4
sI89
I5
sI92
I4
sI95
I4
sI96
I3
sI97
I3
sI98
I4
ssI665
(dp574
I96
I3
sI65
I4
sI98
I4
sI97
I2
sI69
I5
sI71
I4
sI9
I4
sI7
I4
sI12
I4
sI15
I4
sI56
I5
sI50
I4
sI1
I4
sI89
I4
sI24
I3
sI88
I3
sI33
I2
sI79
I3
sI92
I4
sI31
I3
ssI666
(dp575
I4
I5
sI5
I2
sI7
I4
sI11
I4
sI12
I4
sI13
I4
sI23
I4
sI25
I3
sI26
I3
sI28
I3
sI31
I3
sI32
I4
sI46
I4
sI48
I4
sI50
I3
sI56
I4
sI64
I4
sI66
I4
sI69
I3
sI70
I4
sI79
I3
sI81
I4
sI82
I3
sI89
I4
sI91
I3
sI92
I3
sI96
I3
sI97
I4
sI98
I4
ssI667
(dp576
I98
I4
sI69
I3
sI9
I5
sI79
I3
sI86
I5
sI23
I3
sI28
I5
ssI668
(dp577
I97
I2
sI69
I1
sI50
I5
sI13
I4
sI82
I4
sI29
I3
ssI669
(dp578
I96
I2
sI1
I5
sI97
I4
sI64
I4
sI7
I3
sI12
I5
sI50
I5
sI79
I2
sI82
I4
sI22
I3
sI23
I4
sI56
I2
ssI670
(dp579
I8
I4
sI96
I5
sI98
I2
sI83
I3
sI15
I4
ssI671
(dp580
I2
I4
sI4
I5
sI5
I2
sI7
I5
sI11
I4
sI12
I5
sI17
I4
sI22
I4
sI23
I4
sI27
I3
sI29
I3
sI31
I2
sI33
I5
sI38
I5
sI50
I5
sI53
I3
sI54
I3
sI55
I3
sI56
I1
sI62
I5
sI66
I5
sI68
I3
sI79
I2
sI82
I4
sI88
I4
sI89
I5
sI96
I5
sI98
I4
ssI672
(dp581
I25
I5
sI50
I3
sI15
I3
ssI673
(dp582
I12
I4
sI79
I5
ssI674
(dp583
I25
I4
sI50
I4
sI15
I4
sI1
I4
ssI675
(dp584
I86
I4
ssI676
(dp585
I64
I5
sI1
I5
sI9
I2
sI13
I1
sI50
I5
sI22
I5
ssI677
(dp586
I1
I4
sI91
I5
sI14
I1
sI7
I4
ssI678
(dp587
I1
I5
sI7
I4
sI14
I3
sI15
I3
sI50
I4
sI25
I2
ssI679
(dp588
I64
I4
sI1
I3
sI69
I4
sI70
I4
sI97
I3
sI8
I2
sI73
I4
sI42
I4
sI50
I5
sI83
I5
sI56
I4
sI95
I3
sI28
I5
sI63
I3
ssI680
(dp589
I1
I4
sI98
I4
sI7
I5
sI9
I4
sI14
I5
sI15
I3
sI50
I5
sI20
I4
sI24
I4
sI25
I4
ssI682
(dp590
I1
I4
sI2
I3
sI3
I3
sI4
I3
sI5
I3
sI7
I4
sI8
I3
sI9
I3
sI11
I4
sI12
I5
sI15
I4
sI17
I3
sI21
I4
sI22
I5
sI23
I4
sI24
I4
sI25
I4
sI26
I3
sI27
I3
sI28
I3
sI29
I2
sI31
I3
sI33
I4
sI38
I3
sI39
I4
sI41
I3
sI42
I5
sI47
I1
sI48
I4
sI49
I3
sI50
I5
sI51
I5
sI53
I2
sI54
I4
sI55
I4
sI56
I4
sI58
I3
sI62
I3
sI64
I5
sI65
I3
sI66
I3
sI67
I4
sI68
I5
sI69
I4
sI70
I4
sI71
I5
sI72
I3
sI73
I5
sI75
I4
sI76
I3
sI77
I3
sI79
I4
sI80
I1
sI81
I3
sI82
I4
sI83
I3
sI85
I3
sI86
I2
sI87
I5
sI88
I4
sI89
I4
sI92
I5
sI94
I3
sI95
I5
sI96
I4
sI97
I4
sI98
I4
ssI683
(dp591
I56
I5
sI22
I4
sI62
I4
ssI684
(dp592
I64
I4
sI1
I4
sI66
I4
sI67
I3
sI38
I3
sI70
I4
sI8
I5
sI73
I4
sI50
I4
sI15
I5
sI48
I4
sI49
I4
sI82
I5
sI83
I5
sI88
I4
sI98
I4
sI94
I3
sI63
I4
ssI686
(dp593
I64
I5
sI97
I2
sI98
I5
sI99
I5
sI11
I4
sI12
I5
sI2
I3
sI79
I4
sI48
I5
sI50
I4
sI22
I5
sI23
I5
sI56
I5
sI89
I4
sI26
I5
sI28
I4
ssI689
(dp594
I1
I3
sI50
I5
sI15
I5
sI13
I1
sI7
I5
ssI690
(dp595
I1
I4
sI4
I3
sI8
I4
sI9
I3
sI12
I4
sI25
I3
sI47
I1
sI51
I3
sI53
I2
sI56
I4
sI63
I3
sI64
I5
sI66
I3
sI67
I4
sI69
I5
sI70
I2
sI72
I2
sI73
I2
sI77
I3
sI79
I4
sI80
I3
sI85
I1
sI88
I4
sI89
I2
sI90
I1
sI94
I4
sI98
I5
ssI691
(dp596
I64
I5
sI1
I5
sI98
I4
sI8
I2
sI79
I5
sI50
I4
sI56
I4
ssI692
(dp597
I56
I3
sI25
I4
sI66
I2
sI1
I4
ssI693
(dp598
I7
I4
sI9
I3
sI11
I4
sI12
I4
sI23
I4
sI25
I4
sI28
I2
sI39
I3
sI48
I5
sI50
I3
sI53
I4
sI56
I4
sI58
I3
sI64
I3
sI69
I3
sI77
I2
sI79
I4
sI88
I3
sI96
I4
sI97
I5
sI98
I4
sI99
I3
ssI694
(dp599
I97
I5
sI98
I5
sI69
I5
sI71
I4
sI72
I4
sI9
I5
sI82
I5
sI15
I4
sI48
I4
sI50
I5
sI52
I4
sI22
I5
sI23
I3
sI88
I4
sI89
I4
sI28
I4
sI31
I4
ssI696
(dp600
I9
I5
ssI697
(dp601
I1
I5
sI50
I5
sI7
I5
sI9
I4
sI25
I3
ssI698
(dp602
I96
I4
sI1
I4
sI66
I3
sI86
I2
sI9
I3
sI10
I4
sI50
I5
sI83
I5
sI22
I1
sI89
I4
sI25
I2
sI28
I2
sI95
I3
ssI699
(dp603
I1
I3
sI98
I4
sI3
I3
sI70
I4
sI7
I2
sI9
I2
sI10
I4
sI13
I4
sI14
I3
sI15
I1
sI16
I3
sI50
I3
sI19
I4
sI20
I4
sI21
I3
sI23
I4
sI24
I3
sI95
I3
ssI700
(dp604
I96
I4
sI98
I3
sI73
I3
sI79
I3
sI48
I4
sI50
I5
sI56
I3
sI28
I3
ssI701
(dp605
I1
I4
sI50
I5
sI19
I5
ssI703
(dp606
I1
I4
sI7
I4
sI9
I2
sI15
I5
sI50
I5
sI25
I3
ssI704
(dp607
I98
I5
sI69
I3
sI14
I3
sI50
I5
sI22
I2
sI89
I5
sI58
I3
ssI705
(dp608
I1
I5
sI2
I3
sI8
I3
sI15
I3
sI22
I5
sI28
I4
sI29
I5
sI38
I5
sI50
I4
sI58
I2
sI62
I5
sI64
I5
sI69
I3
sI71
I5
sI79
I5
sI82
I5
sI83
I4
sI89
I2
sI94
I4
sI95
I4
sI96
I5
sI97
I3
sI99
I3
ssI706
(dp609
I1
I4
sI7
I3
sI9
I3
sI50
I5
sI24
I3
sI25
I4
ssI707
(dp610
I4
I3
sI6
I3
sI8
I5
sI9
I5
sI10
I5
sI12
I3
sI13
I4
sI14
I3
sI15
I4
sI26
I3
sI45
I4
sI52
I3
sI57
I4
sI58
I3
sI64
I3
sI65
I4
sI70
I3
sI81
I2
sI83
I3
sI86
I4
sI88
I3
sI93
I5
sI97
I4
ssI708
(dp611
I1
I5
sI9
I1
sI15
I3
sI50
I5
sI21
I1
sI25
I3
ssI709
(dp612
I1
I4
sI2
I4
sI4
I3
sI5
I4
sI7
I3
sI11
I5
sI17
I4
sI22
I5
sI27
I3
sI28
I5
sI29
I3
sI38
I3
sI50
I5
sI53
I3
sI56
I5
sI62
I3
sI64
I5
sI65
I2
sI68
I5
sI69
I5
sI79
I3
sI82
I4
sI89
I3
sI92
I4
sI96
I5
sI97
I5
sI98
I4
ssI710
(dp613
I64
I4
sI1
I4
sI99
I4
sI12
I4
sI79
I4
sI50
I4
sI22
I3
sI23
I5
sI56
I5
sI89
I4
sI92
I3
sI95
I3
ssI711
(dp614
I8
I5
sI10
I5
sI16
I5
sI22
I4
sI25
I4
sI40
I4
sI42
I3
sI48
I4
sI49
I4
sI50
I4
sI51
I4
sI52
I5
sI58
I4
sI64
I4
sI65
I4
sI66
I4
sI69
I3
sI70
I5
sI71
I3
sI77
I3
sI79
I4
sI82
I3
sI83
I5
sI86
I5
sI88
I5
sI89
I5
sI91
I4
sI94
I2
sI95
I4
sI97
I4
sI98
I5
sI99
I3
ssI712
(dp615
I4
I4
sI26
I2
sI38
I4
sI40
I5
sI42
I1
sI49
I3
sI50
I4
sI51
I3
sI59
I2
sI60
I1
sI61
I3
sI63
I4
sI66
I5
sI67
I3
sI69
I3
sI71
I5
sI72
I4
sI73
I5
sI78
I4
sI79
I4
sI82
I5
sI83
I4
sI88
I4
sI90
I3
sI94
I4
sI95
I4
sI96
I5
sI97
I5
sI99
I4
ssI714
(dp616
I1
I3
sI3
I5
sI7
I4
sI9
I3
sI15
I3
sI50
I5
ssI715
(dp617
I1
I5
sI2
I3
sI4
I4
sI7
I3
sI11
I4
sI12
I4
sI17
I3
sI22
I4
sI24
I3
sI27
I3
sI28
I5
sI31
I4
sI33
I3
sI39
I3
sI40
I1
sI42
I5
sI50
I5
sI53
I1
sI56
I5
sI58
I4
sI64
I5
sI68
I4
sI69
I4
sI70
I3
sI71
I3
sI73
I4
sI79
I5
sI81
I4
sI82
I4
sI83
I4
sI85
I3
sI87
I4
sI88
I3
sI89
I3
sI90
I5
sI92
I3
sI95
I4
sI96
I4
sI97
I3
sI98
I5
ssI716
(dp618
I1
I5
sI4
I2
sI11
I4
sI13
I2
sI22
I5
sI23
I4
sI25
I4
sI28
I5
sI31
I3
sI47
I3
sI48
I5
sI49
I4
sI50
I5
sI52
I5
sI56
I5
sI58
I5
sI64
I5
sI69
I5
sI70
I4
sI72
I3
sI73
I4
sI79
I4
sI81
I4
sI82
I5
sI83
I4
sI86
I5
sI88
I4
sI91
I5
sI95
I4
sI96
I2
sI97
I4
sI98
I5
sI99
I5
ssI717
(dp619
I24
I2
sI25
I5
sI50
I4
sI7
I4
ssI718
(dp620
I15
I5
ssI719
(dp621
I64
I5
sI97
I3
sI66
I3
sI71
I3
sI69
I5
sI7
I2
sI9
I4
sI87
I2
sI98
I5
sI77
I3
sI79
I4
sI50
I2
sI23
I3
sI88
I3
sI58
I3
ssI721
(dp622
I64
I4
sI65
I1
sI1
I5
sI69
I4
sI70
I3
sI97
I4
sI8
I4
sI50
I5
sI77
I5
sI81
I2
sI82
I4
sI51
I4
sI84
I3
sI22
I5
sI87
I3
sI56
I3
sI58
I2
sI15
I4
sI28
I5
ssI722
(dp623
I25
I4
sI13
I2
sI7
I4
ssI723
(dp624
I1
I3
sI50
I4
sI28
I3
sI9
I3
sI89
I3
ssI725
(dp625
I9
I4
sI19
I5
sI15
I4
ssI726
(dp626
I1
I4
sI25
I4
ssI727
(dp627
I1
I3
sI2
I4
sI5
I3
sI7
I2
sI11
I3
sI12
I5
sI17
I1
sI22
I4
sI24
I3
sI25
I3
sI27
I4
sI28
I5
sI29
I3
sI33
I3
sI38
I1
sI39
I2
sI42
I5
sI43
I3
sI50
I4
sI53
I1
sI54
I3
sI55
I3
sI56
I3
sI62
I3
sI63
I2
sI65
I2
sI66
I3
sI67
I4
sI68
I4
sI69
I4
sI70
I5
sI71
I3
sI72
I3
sI73
I4
sI79
I4
sI80
I4
sI82
I3
sI83
I5
sI87
I4
sI88
I5
sI89
I5
sI90
I3
sI91
I4
sI92
I2
sI94
I4
sI95
I4
sI96
I4
sI98
I4
ssI728
(dp628
I25
I4
sI15
I4
ssI730
(dp629
I1
I4
sI50
I4
sI7
I4
sI15
I4
ssI731
(dp630
I64
I5
sI1
I2
sI66
I4
sI69
I5
sI97
I5
sI8
I2
sI14
I3
sI15
I4
sI56
I2
sI28
I4
sI95
I3
ssI733
(dp631
I1
I2
sI7
I3
sI9
I3
sI10
I3
sI13
I3
sI14
I5
sI16
I3
sI19
I5
sI20
I5
ssI734
(dp632
I97
I4
sI98
I4
sI99
I4
sI50
I4
sI15
I4
sI82
I4
sI83
I4
sI22
I3
sI56
I1
sI28
I4
sI95
I4
ssI735
(dp633
I1
I4
sI7
I3
sI9
I4
sI13
I4
sI50
I5
sI25
I4
sI93
I2
ssI736
(dp634
I50
I3
ssI737
(dp635
I96
I2
sI64
I4
sI32
I4
sI11
I3
sI12
I4
sI47
I3
sI22
I4
sI89
I4
sI58
I4
ssI738
(dp636
I1
I5
sI2
I3
sI4
I4
sI7
I4
sI22
I3
sI28
I4
sI39
I3
sI42
I2
sI47
I3
sI50
I5
sI54
I3
sI56
I4
sI63
I3
sI64
I4
sI69
I5
sI71
I3
sI79
I3
sI81
I4
sI82
I5
sI88
I3
sI89
I5
sI91
I4
sI95
I4
sI96
I5
sI97
I4
sI98
I4
ssI739
(dp637
I96
I5
sI97
I5
sI98
I3
sI69
I5
sI79
I4
sI50
I4
sI22
I5
sI55
I1
sI56
I4
ssI741
(dp638
I5
I3
sI7
I3
sI15
I4
sI17
I2
sI22
I5
sI25
I3
sI28
I3
sI31
I3
sI38
I2
sI48
I4
sI50
I5
sI54
I3
sI56
I4
sI66
I3
sI67
I3
sI69
I4
sI70
I4
sI77
I3
sI79
I4
sI82
I3
sI83
I4
sI88
I4
sI92
I3
sI94
I3
sI95
I2
sI98
I5
ssI742
(dp639
I1
I4
sI7
I3
sI13
I4
sI14
I5
sI15
I4
sI50
I4
sI24
I3
ssI743
(dp640
I9
I5
sI15
I3
ssI744
(dp641
I1
I4
sI50
I3
sI28
I3
sI9
I3
sI23
I4
ssI745
(dp642
I64
I5
sI96
I4
sI98
I5
sI1
I2
sI7
I4
sI8
I4
sI9
I4
sI10
I5
sI12
I5
sI14
I3
sI79
I3
sI50
I2
sI20
I1
sI28
I2
ssI746
(dp643
I96
I4
sI1
I4
sI2
I3
sI68
I4
sI38
I2
sI8
I4
sI64
I4
sI82
I4
sI79
I5
sI24
I4
sI50
I5
sI83
I4
sI22
I4
sI56
I3
sI89
I4
sI62
I3
ssI747
(dp644
I1
I5
sI3
I2
sI4
I4
sI7
I4
sI8
I5
sI9
I5
sI11
I5
sI12
I4
sI13
I3
sI14
I3
sI15
I4
sI17
I4
sI21
I2
sI22
I3
sI23
I5
sI25
I3
sI26
I3
sI28
I4
sI29
I1
sI30
I5
sI31
I4
sI32
I5
sI39
I4
sI40
I2
sI44
I2
sI47
I5
sI48
I5
sI50
I5
sI56
I5
sI58
I3
sI63
I3
sI64
I5
sI69
I5
sI70
I4
sI71
I5
sI73
I4
sI79
I4
sI82
I4
sI83
I4
sI85
I3
sI86
I5
sI87
I5
sI88
I2
sI91
I5
sI93
I4
sI94
I4
sI95
I3
sI96
I5
sI97
I5
sI98
I5
sI99
I5
ssI748
(dp645
I64
I4
sI97
I4
sI4
I4
sI22
I4
sI71
I3
sI8
I4
sI96
I5
sI7
I4
sI79
I4
sI48
I4
sI50
I5
sI83
I3
sI1
I4
sI86
I4
sI56
I4
sI89
I5
sI58
I4
sI69
I4
ssI749
(dp646
I1
I4
sI2
I4
sI4
I4
sI9
I3
sI11
I5
sI15
I5
sI22
I5
sI23
I3
sI24
I2
sI25
I4
sI31
I5
sI38
I3
sI47
I4
sI48
I3
sI49
I4
sI50
I5
sI56
I2
sI58
I3
sI62
I3
sI64
I4
sI66
I3
sI67
I1
sI68
I4
sI69
I5
sI71
I4
sI72
I3
sI73
I4
sI77
I3
sI78
I3
sI79
I4
sI80
I1
sI82
I5
sI85
I4
sI86
I4
sI87
I4
sI88
I4
sI89
I4
sI94
I5
sI95
I3
sI96
I5
sI98
I5
sI99
I5
ssI751
(dp647
I1
I3
sI2
I4
sI3
I3
sI7
I3
sI11
I1
sI21
I5
sI25
I5
sI28
I5
sI42
I5
sI50
I5
sI52
I2
sI55
I4
sI56
I4
sI62
I4
sI70
I4
sI79
I4
sI82
I4
sI83
I5
sI85
I3
sI87
I5
sI88
I4
sI89
I3
sI90
I3
sI91
I4
sI94
I3
sI95
I5
sI96
I4
sI98
I5
sI99
I4
ssI753
(dp648
I96
I1
sI64
I4
sI98
I5
sI69
I4
sI71
I5
sI79
I4
sI50
I4
sI22
I4
sI23
I2
sI89
I3
ssI754
(dp649
I9
I4
sI15
I5
ssI756
(dp650
I1
I4
sI3
I1
sI8
I4
sI9
I2
sI22
I3
sI30
I4
sI50
I4
sI53
I3
sI55
I5
sI63
I3
sI66
I4
sI71
I3
sI79
I4
sI82
I3
sI88
I1
sI89
I4
sI91
I3
sI92
I3
sI95
I3
sI96
I4
sI97
I3
sI99
I3
ssI757
(dp651
I1
I4
sI2
I3
sI4
I5
sI7
I4
sI11
I4
sI17
I3
sI22
I4
sI24
I4
sI27
I4
sI28
I3
sI29
I2
sI31
I4
sI38
I3
sI50
I4
sI53
I3
sI56
I4
sI58
I3
sI62
I3
sI64
I5
sI68
I4
sI69
I3
sI71
I4
sI79
I4
sI82
I4
sI89
I4
sI91
I4
sI95
I4
sI96
I4
sI97
I4
sI98
I4
ssI758
(dp652
I4
I4
sI6
I2
sI7
I5
sI8
I5
sI11
I3
sI12
I5
sI13
I5
sI14
I5
sI20
I4
sI23
I4
sI24
I4
sI25
I4
sI26
I4
sI28
I4
sI29
I3
sI31
I3
sI33
I4
sI38
I3
sI39
I2
sI43
I3
sI50
I4
sI53
I4
sI56
I5
sI58
I4
sI61
I3
sI62
I2
sI64
I5
sI66
I3
sI68
I3
sI69
I5
sI76
I3
sI77
I3
sI79
I4
sI81
I5
sI82
I4
sI88
I4
sI91
I4
sI93
I5
sI95
I3
sI96
I5
sI98
I5
sI99
I3
ssI759
(dp653
I24
I3
sI1
I5
sI50
I4
ssI760
(dp654
I65
I2
sI98
I3
sI71
I4
sI66
I2
sI50
I3
sI25
I2
ssI761
(dp655
I1
I1
sI50
I5
sI7
I4
sI9
I2
sI15
I5
ssI763
(dp656
I1
I4
sI4
I5
sI5
I4
sI11
I4
sI12
I5
sI13
I3
sI16
I5
sI22
I4
sI25
I4
sI26
I4
sI28
I3
sI39
I4
sI47
I3
sI50
I4
sI55
I4
sI56
I5
sI59
I5
sI60
I5
sI61
I5
sI69
I4
sI70
I5
sI73
I3
sI79
I5
sI83
I3
sI85
I4
sI87
I2
sI88
I4
sI96
I2
sI97
I3
sI98
I4
sI99
I4
ssI764
(dp657
I1
I4
sI2
I3
sI4
I3
sI7
I4
sI9
I4
sI11
I4
sI13
I2
sI14
I4
sI15
I4
sI21
I2
sI22
I4
sI25
I2
sI28
I4
sI31
I4
sI50
I3
sI56
I4
sI64
I5
sI69
I5
sI70
I4
sI71
I5
sI77
I4
sI86
I3
sI89
I4
sI95
I5
sI98
I5
sI99
I4
ssI765
(dp658
I10
I4
sI14
I5
sI15
I2
sI50
I2
sI25
I4
sI42
I5
ssI766
(dp659
I65
I4
sI98
I3
sI99
I3
sI69
I4
sI71
I3
sI72
I2
sI23
I4
sI77
I2
sI50
I4
sI8
I5
sI82
I3
sI52
I4
sI53
I4
sI22
I3
sI40
I3
sI89
I4
sI90
I1
sI91
I5
sI28
I5
sI62
I3
sI95
I3
ssI767
(dp660
I56
I4
sI1
I5
sI98
I5
sI28
I4
sI22
I4
ssI768
(dp661
I65
I4
sI70
I4
sI1
I5
sI9
I5
sI14
I5
sI15
I2
sI16
I3
sI50
I4
sI25
I4
ssI769
(dp662
I1
I4
sI13
I4
sI15
I3
ssI770
(dp663
I1
I5
sI7
I5
sI14
I5
sI15
I5
sI50
I3
sI25
I5
sI93
I5
ssI771
(dp664
I1
I5
sI98
I1
sI4
I1
sI69
I5
sI71
I5
sI8
I5
sI15
I5
sI50
I4
sI79
I1
sI82
I2
sI83
I5
sI97
I1
sI86
I5
sI88
I4
sI91
I4
sI28
I5
sI95
I4
ssI773
(dp665
I1
I3
sI2
I3
sI6
I3
sI7
I2
sI11
I2
sI12
I3
sI13
I4
sI14
I5
sI23
I5
sI24
I3
sI27
I1
sI29
I2
sI32
I4
sI37
I3
sI42
I3
sI45
I4
sI47
I4
sI50
I5
sI52
I3
sI53
I3
sI56
I2
sI59
I5
sI60
I5
sI61
I5
sI64
I4
sI68
I2
sI70
I3
sI72
I3
sI89
I4
sI90
I4
sI91
I4
sI92
I4
sI93
I3
sI96
I2
sI98
I4
ssI774
(dp666
I2
I1
sI4
I2
sI7
I2
sI8
I1
sI12
I3
sI22
I2
sI23
I3
sI28
I3
sI29
I1
sI31
I1
sI44
I1
sI50
I4
sI52
I3
sI53
I4
sI54
I1
sI56
I2
sI58
I1
sI62
I2
sI64
I3
sI68
I3
sI69
I4
sI72
I1
sI77
I1
sI79
I2
sI82
I2
sI88
I1
sI89
I2
sI91
I1
sI94
I2
sI96
I2
sI97
I2
sI98
I4
ssI776
(dp667
I98
I4
sI5
I4
sI7
I4
sI50
I5
sI21
I3
sI22
I5
sI23
I4
sI89
I5
sI91
I4
sI28
I5
sI53
I2
sI95
I4
ssI777
(dp668
I56
I5
sI1
I4
sI42
I5
sI9
I5
sI15
I4
ssI778
(dp669
I98
I4
sI35
I1
sI69
I2
sI7
I4
sI8
I1
sI42
I5
sI11
I5
sI78
I1
sI79
I3
sI82
I3
sI54
I2
sI56
I3
sI28
I4
sI94
I2
ssI779
(dp670
I1
I4
sI7
I3
sI71
I4
sI15
I4
sI50
I5
sI21
I5
sI95
I5
ssI780
(dp671
I97
I5
sI98
I1
sI4
I3
sI70
I2
sI79
I4
sI50
I5
sI22
I4
sI28
I5
ssI781
(dp672
I64
I4
sI97
I4
sI69
I3
sI50
I5
sI87
I4
sI56
I3
ssI782
(dp673
I50
I3
ssI785
(dp674
I1
I4
sI69
I4
sI12
I4
sI79
I4
sI50
I5
sI22
I4
sI56
I4
ssI786
(dp675
I97
I4
sI66
I4
sI99
I4
sI4
I4
sI69
I4
sI70
I4
sI7
I5
sI9
I5
sI71
I5
sI98
I5
sI15
I3
sI50
I4
sI82
I4
sI1
I4
sI86
I4
sI88
I4
sI89
I4
sI28
I5
sI95
I5
ssI788
(dp676
I1
I3
sI4
I3
sI7
I4
sI9
I4
sI10
I4
sI11
I2
sI12
I5
sI22
I5
sI23
I3
sI28
I5
sI29
I3
sI38
I3
sI43
I3
sI44
I4
sI46
I3
sI51
I4
sI53
I1
sI54
I4
sI55
I4
sI56
I3
sI58
I4
sI62
I3
sI64
I5
sI65
I4
sI68
I3
sI69
I4
sI70
I4
sI71
I3
sI73
I3
sI76
I3
sI79
I4
sI82
I3
sI85
I1
sI89
I5
sI96
I3
sI97
I3
sI98
I5
ssI789
(dp677
I9
I5
sI50
I5
sI93
I4
sI1
I3
ssI790
(dp678
I1
I3
sI2
I3
sI4
I3
sI7
I4
sI10
I1
sI13
I3
sI15
I5
sI17
I2
sI22
I5
sI25
I2
sI29
I2
sI38
I2
sI41
I3
sI42
I5
sI47
I2
sI49
I3
sI50
I4
sI51
I3
sI52
I4
sI56
I4
sI62
I3
sI63
I2
sI65
I4
sI66
I3
sI67
I3
sI68
I3
sI69
I1
sI70
I3
sI72
I2
sI73
I4
sI79
I4
sI80
I2
sI83
I3
sI85
I3
sI89
I4
sI90
I2
sI91
I3
sI96
I3
sI97
I2
sI98
I5
ssI791
(dp679
I9
I5
sI50
I5
ssI792
(dp680
I1
I4
sI7
I4
sI9
I3
sI13
I4
sI15
I4
sI21
I3
sI24
I3
sI25
I2
ssI793
(dp681
I1
I4
sI50
I5
sI3
I4
sI9
I3
sI7
I3
ssI794
(dp682
I1
I4
sI13
I4
sI14
I5
sI50
I5
sI19
I4
sI24
I5
ssI795
(dp683
I1
I4
sI2
I3
sI3
I2
sI4
I4
sI7
I5
sI8
I5
sI10
I4
sI12
I4
sI17
I2
sI21
I3
sI25
I5
sI28
I4
sI39
I4
sI42
I3
sI47
I3
sI50
I3
sI58
I4
sI62
I4
sI68
I3
sI70
I3
sI72
I3
sI79
I2
sI80
I3
sI81
I4
sI89
I4
sI91
I5
sI95
I4
sI96
I2
sI97
I2
ssI796
(dp684
I1
I2
sI2
I5
sI4
I5
sI5
I4
sI8
I5
sI9
I3
sI12
I5
sI15
I4
sI22
I4
sI23
I2
sI26
I2
sI28
I3
sI29
I3
sI31
I4
sI33
I3
sI36
I1
sI38
I5
sI39
I3
sI43
I4
sI45
I3
sI48
I3
sI49
I3
sI50
I5
sI53
I1
sI54
I4
sI56
I5
sI58
I3
sI62
I4
sI63
I3
sI64
I4
sI66
I5
sI69
I5
sI71
I4
sI77
I5
sI78
I3
sI79
I5
sI82
I3
sI86
I5
sI87
I5
sI88
I5
sI89
I5
sI91
I2
sI94
I3
sI95
I4
sI96
I4
sI97
I3
sI98
I5
sI99
I3
ssI797
(dp685
I50
I5
ssI798
(dp686
I1
I4
sI2
I4
sI14
I2
sI15
I4
sI21
I5
sI28
I4
sI29
I4
sI38
I4
sI49
I4
sI50
I5
sI52
I3
sI62
I4
sI63
I5
sI66
I3
sI71
I3
sI72
I3
sI73
I4
sI79
I4
sI81
I3
sI82
I4
sI83
I4
sI87
I3
sI88
I4
sI90
I3
sI94
I3
sI95
I5
sI97
I1
sI98
I1
ssI799
(dp687
I50
I4
sI45
I4
ssI800
(dp688
I25
I4
sI50
I4
sI1
I4
sI15
I4
ssI802
(dp689
I56
I3
sI98
I4
sI53
I4
sI7
I5
ssI804
(dp690
I1
I5
sI2
I4
sI4
I4
sI7
I4
sI10
I4
sI11
I4
sI22
I5
sI23
I4
sI24
I5
sI25
I4
sI28
I4
sI31
I4
sI32
I3
sI33
I4
sI39
I2
sI40
I3
sI49
I2
sI50
I4
sI55
I4
sI56
I3
sI62
I4
sI63
I4
sI64
I5
sI68
I3
sI69
I4
sI70
I4
sI71
I4
sI72
I4
sI79
I4
sI81
I4
sI82
I5
sI84
I3
sI85
I4
sI87
I4
sI89
I4
sI91
I4
sI94
I4
sI95
I2
sI96
I5
sI97
I4
sI98
I5
sI99
I4
ssI805
(dp691
I1
I4
sI4
I2
sI5
I4
sI7
I5
sI8
I3
sI9
I3
sI11
I2
sI12
I4
sI13
I3
sI17
I4
sI21
I2
sI22
I1
sI24
I4
sI25
I4
sI28
I3
sI32
I4
sI33
I5
sI38
I3
sI40
I3
sI42
I2
sI45
I4
sI47
I5
sI50
I4
sI55
I5
sI56
I4
sI58
I4
sI65
I3
sI68
I3
sI71
I3
sI79
I5
sI82
I3
sI83
I4
sI86
I4
sI88
I2
sI89
I4
sI90
I2
sI91
I5
sI93
I5
sI94
I1
sI95
I3
sI96
I4
sI98
I5
sI99
I2
ssI806
(dp692
I1
I4
sI2
I3
sI3
I2
sI6
I2
sI12
I5
sI14
I3
sI17
I4
sI24
I3
sI28
I3
sI29
I4
sI45
I4
sI47
I4
sI50
I5
sI56
I5
sI70
I2
sI76
I3
sI79
I3
sI81
I5
sI82
I4
sI88
I4
sI89
I5
sI90
I4
sI95
I5
sI96
I5
sI98
I4
ssI807
(dp693
I1
I4
sI2
I4
sI8
I4
sI21
I4
sI22
I5
sI28
I4
sI29
I4
sI50
I5
sI62
I3
sI63
I5
sI68
I4
sI69
I5
sI71
I5
sI73
I3
sI79
I5
sI82
I4
sI89
I4
sI91
I5
sI94
I2
sI95
I4
sI96
I3
sI99
I5
ssI813
(dp694
I9
I3
ssI814
(dp695
I98
I4
sI5
I3
sI7
I4
sI17
I3
sI53
I4
sI56
I3
ssI815
(dp696
I1
I5
sI2
I3
sI7
I4
sI9
I4
sI28
I4
sI31
I4
sI50
I5
sI54
I3
sI57
I5
sI65
I5
sI69
I4
sI71
I5
sI77
I4
sI79
I4
sI82
I4
sI83
I4
sI86
I5
sI87
I5
sI88
I4
sI89
I4
sI91
I3
sI94
I3
sI95
I3
sI96
I5
sI97
I5
sI98
I4
sI99
I4
ssI817
(dp697
I24
I4
sI1
I4
sI7
I4
sI9
I3
sI15
I3
ssI819
(dp698
I70
I4
ssI821
(dp699
I64
I5
sI97
I5
sI98
I5
sI70
I4
sI1
I5
sI71
I5
sI14
I4
sI79
I5
sI22
I5
sI56
I5
sI15
I5
sI28
I5
sI95
I5
ssI822
(dp700
I25
I3
sI95
I4
sI91
I3
sI1
I4
sI71
I4
ssI823
(dp701
I1
I4
sI4
I5
sI7
I5
sI8
I5
sI12
I4
sI13
I5
sI17
I4
sI22
I5
sI25
I3
sI26
I5
sI28
I3
sI31
I5
sI33
I3
sI42
I4
sI48
I5
sI50
I5
sI52
I3
sI53
I5
sI55
I4
sI56
I5
sI58
I5
sI64
I5
sI66
I4
sI68
I3
sI69
I5
sI71
I3
sI77
I4
sI79
I4
sI81
I4
sI83
I3
sI87
I5
sI88
I5
sI89
I5
sI90
I4
sI91
I3
sI92
I5
sI94
I2
sI95
I4
sI96
I4
sI97
I5
sI98
I5
ssI825
(dp702
I98
I5
sI7
I5
sI9
I3
sI12
I5
sI14
I3
sI16
I3
sI50
I4
sI20
I2
sI25
I4
ssI826
(dp703
I1
I4
sI2
I3
sI4
I4
sI11
I4
sI22
I5
sI29
I3
sI33
I3
sI38
I3
sI39
I4
sI50
I5
sI53
I5
sI55
I5
sI56
I5
sI62
I4
sI68
I3
sI71
I5
sI79
I4
sI82
I3
sI89
I5
sI91
I4
sI92
I4
sI95
I5
sI96
I5
sI99
I3
ssI828
(dp704
I19
I5
sI6
I1
sI70
I3
sI10
I3
sI45
I4
sI14
I4
sI83
I3
sI52
I3
sI86
I3
sI24
I4
sI57
I3
sI26
I3
sI59
I5
sI60
I4
sI61
I5
sI20
I2
ssI829
(dp705
I1
I4
sI70
I4
sI10
I3
sI13
I4
sI14
I2
sI20
I3
sI86
I4
ssI830
(dp706
I96
I3
sI97
I4
sI2
I3
sI99
I3
sI69
I5
sI1
I4
sI71
I4
sI89
I5
sI82
I3
sI15
I4
sI49
I5
sI50
I5
sI22
I5
sI87
I4
sI56
I2
sI88
I4
sI98
I5
sI79
I4
sI29
I1
sI95
I3
ssI831
(dp707
I96
I5
sI1
I4
sI7
I5
sI64
I5
sI12
I5
sI50
I5
sI83
I4
sI22
I5
sI56
I5
sI28
I3
sI31
I4
ssI832
(dp708
I25
I2
sI50
I3
ssI833
(dp709
I4
I3
sI5
I1
sI7
I3
sI11
I5
sI12
I5
sI13
I2
sI22
I3
sI23
I5
sI24
I4
sI26
I1
sI28
I3
sI30
I4
sI32
I5
sI33
I2
sI38
I1
sI47
I5
sI50
I2
sI52
I3
sI53
I1
sI55
I3
sI56
I4
sI58
I2
sI64
I3
sI67
I3
sI68
I4
sI69
I2
sI72
I2
sI76
I2
sI79
I3
sI89
I5
sI92
I2
sI93
I4
sI96
I5
sI98
I3
ssI834
(dp710
I7
I4
sI9
I3
sI13
I2
sI15
I4
sI50
I5
sI25
I3
ssI835
(dp711
I1
I3
sI98
I5
sI69
I5
sI97
I5
sI15
I5
sI50
I4
sI23
I4
sI25
I5
sI28
I4
ssI836
(dp712
I56
I4
sI89
I4
sI42
I3
sI12
I5
ssI837
(dp713
I9
I3
sI13
I4
sI15
I3
sI16
I2
sI19
I4
sI20
I4
sI25
I3
ssI838
(dp714
I96
I4
sI1
I5
sI50
I5
sI69
I4
sI70
I4
sI7
I5
sI72
I4
sI60
I4
sI87
I4
sI12
I4
sI45
I4
sI8
I4
sI82
I4
sI83
I5
sI9
I4
sI22
I4
sI56
I5
sI24
I4
sI71
I3
sI28
I4
sI93
I3
ssI839
(dp715
I1
I4
sI50
I5
sI93
I4
sI7
I2
ssI840
(dp716
I7
I4
sI8
I5
sI11
I3
sI14
I5
sI22
I3
sI23
I5
sI45
I4
sI48
I3
sI50
I4
sI52
I3
sI56
I5
sI64
I4
sI66
I3
sI69
I4
sI70
I3
sI71
I3
sI79
I4
sI81
I4
sI82
I3
sI83
I5
sI88
I4
sI89
I5
sI91
I5
sI96
I2
sI97
I3
sI98
I5
sI99
I5
ssI843
(dp717
I1
I3
sI7
I5
sI21
I2
sI23
I2
sI25
I2
sI28
I3
sI50
I3
sI52
I2
sI53
I2
sI56
I3
sI62
I4
sI69
I3
sI71
I2
sI74
I2
sI77
I2
sI79
I2
sI82
I3
sI83
I3
sI89
I5
sI91
I3
sI95
I2
sI96
I3
sI97
I3
sI98
I3
sI99
I2
ssI844
(dp718
I97
I3
sI2
I4
sI99
I3
sI82
I3
sI69
I5
sI70
I4
sI7
I3
sI71
I3
sI12
I5
sI45
I4
sI13
I3
sI24
I5
sI50
I5
sI83
I5
sI22
I4
sI55
I4
sI56
I4
sI89
I3
sI90
I3
sI95
I4
ssI846
(dp719
I2
I5
sI4
I5
sI8
I4
sI11
I5
sI12
I5
sI22
I4
sI23
I4
sI26
I4
sI28
I5
sI29
I2
sI31
I4
sI33
I5
sI36
I2
sI39
I3
sI40
I2
sI41
I3
sI42
I5
sI44
I1
sI46
I4
sI47
I5
sI48
I5
sI50
I5
sI51
I4
sI52
I4
sI53
I3
sI54
I3
sI55
I5
sI56
I5
sI57
I2
sI58
I4
sI59
I4
sI60
I4
sI61
I3
sI63
I3
sI64
I4
sI65
I3
sI66
I4
sI67
I4
sI68
I3
sI69
I5
sI70
I4
sI71
I4
sI72
I4
sI73
I4
sI76
I4
sI79
I4
sI80
I4
sI82
I2
sI83
I4
sI86
I5
sI87
I4
sI88
I4
sI89
I5
sI90
I2
sI91
I4
sI92
I4
sI94
I4
sI95
I3
sI96
I4
sI97
I4
sI98
I4
sI99
I4
ssI847
(dp720
I1
I3
sI7
I3
sI8
I4
sI11
I3
sI13
I3
sI25
I3
sI39
I2
sI47
I2
sI50
I4
sI56
I1
sI66
I3
sI70
I3
sI71
I4
sI77
I4
sI79
I4
sI82
I4
sI88
I2
sI89
I2
sI93
I1
sI95
I4
sI96
I4
sI98
I4
sI99
I2
ssI848
(dp721
I32
I5
sI65
I2
sI99
I3
sI69
I2
sI97
I5
sI72
I5
sI42
I2
sI23
I2
sI50
I5
sI82
I5
sI25
I5
sI88
I4
sI89
I5
sI71
I5
sI95
I5
ssI849
(dp722
I27
I5
sI38
I5
sI15
I5
ssI850
(dp723
I96
I4
sI97
I5
sI98
I1
sI69
I5
sI71
I5
sI8
I5
sI50
I5
sI15
I5
sI88
I5
sI82
I5
sI22
I5
sI56
I1
sI79
I5
sI28
I5
sI95
I5
ssI851
(dp724
I64
I5
sI68
I3
sI71
I4
sI8
I4
sI9
I4
sI10
I3
sI11
I5
sI12
I4
sI79
I4
sI48
I4
sI17
I5
sI50
I5
sI95
I4
sI22
I5
sI23
I4
sI56
I5
sI4
I5
sI27
I4
sI92
I5
sI31
I4
ssI852
(dp725
I25
I3
sI50
I5
sI1
I4
sI7
I3
ssI854
(dp726
I1
I3
sI3
I1
sI4
I2
sI7
I4
sI8
I5
sI9
I5
sI11
I5
sI12
I5
sI13
I3
sI14
I4
sI15
I3
sI19
I3
sI20
I2
sI22
I2
sI23
I4
sI24
I4
sI25
I3
sI32
I4
sI42
I4
sI49
I4
sI50
I4
sI55
I4
sI56
I5
sI58
I3
sI64
I5
sI69
I4
sI79
I4
sI83
I4
sI86
I3
sI87
I4
sI89
I4
sI93
I5
sI96
I3
sI98
I4
ssI855
(dp727
I59
I3
sI60
I3
sI45
I3
sI86
I2
ssI857
(dp728
I24
I1
sI19
I4
sI20
I3
sI14
I4
ssI858
(dp729
I9
I5
ssI859
(dp730
I25
I4
sI3
I5
sI15
I4
ssI860
(dp731
I56
I4
sI49
I2
sI26
I3
sI4
I4
sI70
I5
ssI861
(dp732
I70
I4
sI10
I3
sI45
I5
sI14
I4
sI83
I5
sI52
I5
sI86
I5
sI20
I4
sI26
I3
ssI862
(dp733
I7
I5
sI10
I5
sI11
I4
sI12
I5
sI22
I5
sI24
I4
sI45
I4
sI50
I5
sI56
I3
sI59
I5
sI60
I5
sI61
I5
sI64
I5
sI69
I5
sI70
I4
sI79
I5
sI81
I5
sI82
I4
sI89
I5
sI91
I5
sI92
I5
sI96
I4
sI97
I4
sI98
I5
sI99
I4
ssI864
(dp734
I1
I5
sI2
I4
sI4
I4
sI5
I4
sI7
I5
sI8
I5
sI9
I5
sI11
I5
sI12
I5
sI13
I4
sI15
I4
sI22
I5
sI24
I5
sI25
I4
sI28
I5
sI29
I4
sI31
I4
sI38
I3
sI43
I3
sI44
I4
sI47
I5
sI48
I5
sI49
I3
sI50
I5
sI52
I4
sI53
I4
sI54
I4
sI55
I4
sI56
I5
sI58
I5
sI62
I4
sI63
I3
sI64
I5
sI65
I3
sI66
I3
sI67
I4
sI69
I5
sI70
I4
sI71
I3
sI72
I4
sI73
I5
sI77
I4
sI79
I5
sI81
I3
sI82
I5
sI85
I2
sI86
I4
sI87
I5
sI88
I4
sI91
I5
sI93
I3
sI94
I4
sI95
I5
sI96
I5
sI97
I4
sI98
I5
sI99
I3
ssI865
(dp735
I1
I1
sI99
I1
sI71
I1
sI7
I5
sI21
I2
sI24
I4
sI91
I3
sI95
I1
ssI867
(dp736
I96
I5
sI64
I5
sI98
I5
sI68
I4
sI69
I2
sI7
I5
sI9
I5
sI11
I3
sI12
I5
sI79
I4
sI50
I5
sI51
I3
sI1
I4
sI22
I5
sI23
I5
sI56
I5
sI89
I5
sI28
I5
sI31
I5
ssI868
(dp737
I1
I4
sI2
I2
sI7
I5
sI12
I5
sI23
I5
sI24
I2
sI47
I2
sI50
I5
sI55
I5
sI56
I3
sI59
I4
sI61
I5
sI64
I5
sI65
I2
sI67
I3
sI68
I2
sI69
I2
sI73
I1
sI80
I2
sI81
I4
sI82
I2
sI89
I4
sI90
I3
sI91
I3
sI94
I1
sI95
I2
sI96
I2
sI98
I4
ssI869
(dp738
I25
I2
sI50
I4
sI13
I3
sI15
I1
ssI870
(dp739
I1
I5
sI2
I2
sI4
I2
sI6
I4
sI7
I4
sI9
I5
sI10
I4
sI11
I4
sI12
I4
sI13
I4
sI17
I4
sI21
I3
sI22
I4
sI23
I4
sI28
I4
sI31
I4
sI38
I3
sI42
I2
sI45
I5
sI47
I3
sI48
I4
sI50
I3
sI51
I2
sI52
I2
sI53
I2
sI54
I2
sI55
I3
sI56
I5
sI58
I5
sI64
I5
sI65
I3
sI66
I4
sI68
I3
sI69
I4
sI70
I4
sI77
I3
sI79
I4
sI83
I4
sI87
I5
sI88
I2
sI89
I3
sI90
I4
sI92
I4
sI95
I4
sI96
I4
sI98
I4
ssI871
(dp740
I96
I5
sI97
I3
sI4
I3
sI11
I3
sI82
I3
sI79
I5
sI17
I3
sI50
I5
sI22
I5
sI56
I5
sI27
I2
sI92
I3
ssI872
(dp741
I1
I3
ssI874
(dp742
I20
I3
sI14
I4
ssI875
(dp743
I96
I4
sI64
I5
sI98
I5
sI4
I3
sI71
I2
sI8
I3
sI42
I4
sI23
I5
sI12
I5
sI45
I3
sI50
I5
sI32
I5
sI22
I3
sI55
I3
sI56
I5
sI28
I4
ssI876
(dp744
I48
I5
sI19
I5
sI22
I4
ssI877
(dp745
I98
I5
sI70
I5
sI14
I5
sI79
I4
sI56
I5
sI83
I3
sI52
I4
sI86
I4
sI55
I4
sI88
I4
sI59
I5
sI60
I5
sI61
I5
sI31
I4
ssI878
(dp746
I8
I3
sI9
I4
sI14
I5
sI15
I4
sI19
I4
sI20
I2
sI22
I2
sI45
I3
sI50
I4
sI51
I4
sI57
I4
sI59
I3
sI60
I4
sI64
I5
sI66
I3
sI70
I3
sI71
I4
sI82
I3
sI88
I4
sI97
I3
sI98
I4
sI99
I4
ssI879
(dp747
I1
I4
sI50
I4
sI25
I4
sI15
I4
ssI880
(dp748
I1
I4
sI2
I3
sI3
I1
sI4
I4
sI5
I3
sI7
I3
sI8
I4
sI11
I4
sI12
I5
sI17
I3
sI21
I2
sI22
I4
sI23
I5
sI24
I3
sI25
I4
sI27
I3
sI28
I5
sI29
I2
sI31
I4
sI33
I3
sI38
I3
sI39
I4
sI40
I2
sI41
I1
sI42
I5
sI44
I4
sI47
I4
sI49
I3
sI50
I5
sI53
I4
sI54
I3
sI55
I3
sI56
I5
sI62
I3
sI63
I3
sI64
I5
sI65
I4
sI67
I1
sI68
I5
sI69
I4
sI70
I4
sI71
I4
sI72
I3
sI79
I4
sI80
I2
sI81
I4
sI82
I3
sI85
I3
sI87
I4
sI88
I3
sI90
I3
sI91
I3
sI92
I4
sI93
I4
sI94
I3
sI95
I3
sI96
I4
sI97
I4
sI98
I5
sI99
I3
ssI881
(dp749
I1
I4
sI4
I3
sI7
I4
sI8
I4
sI9
I3
sI11
I4
sI13
I4
sI14
I1
sI15
I3
sI21
I3
sI22
I5
sI23
I4
sI25
I3
sI27
I3
sI28
I5
sI29
I2
sI31
I5
sI38
I3
sI43
I3
sI49
I5
sI50
I3
sI51
I5
sI53
I2
sI54
I4
sI56
I1
sI58
I3
sI62
I4
sI63
I4
sI64
I5
sI69
I3
sI70
I2
sI71
I4
sI72
I2
sI77
I2
sI79
I4
sI81
I3
sI82
I5
sI88
I3
sI89
I4
sI90
I3
sI94
I2
sI95
I4
sI96
I3
sI97
I3
sI98
I5
sI99
I3
ssI882
(dp750
I1
I5
sI4
I4
sI7
I4
sI8
I5
sI11
I4
sI15
I5
sI21
I2
sI25
I2
sI28
I5
sI33
I2
sI50
I5
sI56
I4
sI66
I4
sI69
I5
sI70
I3
sI71
I5
sI79
I5
sI82
I5
sI86
I5
sI89
I5
sI95
I4
sI96
I4
sI98
I5
sI99
I5
ssI883
(dp751
I1
I3
sI4
I4
sI7
I5
sI8
I4
sI9
I4
sI10
I5
sI11
I2
sI12
I4
sI13
I4
sI14
I3
sI16
I4
sI19
I2
sI20
I4
sI22
I3
sI24
I4
sI26
I3
sI28
I3
sI30
I4
sI39
I4
sI45
I5
sI47
I3
sI48
I4
sI49
I3
sI50
I4
sI52
I3
sI53
I5
sI55
I4
sI56
I5
sI58
I3
sI59
I5
sI60
I5
sI61
I5
sI64
I4
sI65
I4
sI66
I3
sI68
I4
sI69
I2
sI70
I3
sI72
I4
sI79
I4
sI81
I5
sI82
I3
sI83
I3
sI86
I3
sI88
I4
sI89
I5
sI90
I3
sI96
I4
sI98
I3
ssI884
(dp752
I9
I5
sI14
I4
sI86
I3
sI70
I4
ssI885
(dp753
I1
I5
sI99
I4
sI97
I5
sI69
I4
sI70
I5
sI65
I2
sI72
I1
sI71
I4
sI50
I3
sI79
I4
sI88
I4
sI82
I4
sI25
I4
sI56
I3
sI7
I3
sI91
I3
sI28
I4
sI29
I1
sI94
I2
sI95
I4
ssI886
(dp754
I1
I4
sI2
I4
sI3
I3
sI4
I3
sI5
I3
sI7
I5
sI9
I5
sI10
I3
sI11
I5
sI12
I5
sI15
I3
sI17
I4
sI20
I2
sI22
I4
sI23
I4
sI24
I4
sI26
I4
sI27
I2
sI28
I4
sI29
I1
sI33
I4
sI42
I5
sI43
I2
sI47
I4
sI48
I4
sI49
I4
sI50
I5
sI53
I1
sI54
I3
sI55
I4
sI56
I4
sI58
I4
sI62
I3
sI63
I3
sI64
I5
sI65
I3
sI66
I3
sI67
I4
sI68
I3
sI69
I2
sI71
I4
sI76
I4
sI79
I5
sI80
I3
sI81
I4
sI87
I4
sI89
I4
sI92
I3
sI94
I4
sI95
I5
sI96
I3
sI98
I4
ssI887
(dp755
I1
I5
sI7
I4
sI8
I4
sI9
I2
sI13
I1
sI22
I5
sI24
I5
sI25
I2
sI28
I5
sI38
I5
sI47
I5
sI50
I5
sI56
I5
sI65
I5
sI69
I4
sI71
I5
sI72
I4
sI82
I4
sI84
I4
sI87
I5
sI90
I5
sI91
I5
sI95
I4
sI96
I4
sI98
I3
sI99
I5
ssI888
(dp756
I69
I4
ssI889
(dp757
I1
I3
sI2
I3
sI3
I4
sI4
I3
sI7
I3
sI8
I3
sI9
I4
sI11
I5
sI12
I5
sI13
I4
sI17
I4
sI22
I3
sI23
I3
sI24
I4
sI26
I4
sI28
I4
sI29
I3
sI31
I3
sI32
I4
sI33
I5
sI39
I2
sI42
I5
sI50
I4
sI54
I3
sI55
I4
sI56
I5
sI58
I3
sI59
I4
sI60
I3
sI64
I5
sI65
I4
sI67
I2
sI69
I3
sI70
I3
sI71
I3
sI72
I3
sI73
I3
sI77
I3
sI79
I3
sI81
I4
sI82
I4
sI83
I4
sI85
I3
sI86
I4
sI87
I4
sI89
I4
sI91
I4
sI92
I3
sI93
I3
sI94
I4
sI95
I4
sI96
I4
sI97
I3
sI98
I4
ssI890
(dp758
I1
I4
sI98
I4
sI97
I4
sI69
I4
sI7
I4
sI50
I5
sI85
I1
sI23
I5
sI89
I4
ssI891
(dp759
I25
I5
sI50
I4
sI15
I4
ssI892
(dp760
I1
I5
sI2
I4
sI5
I4
sI7
I4
sI8
I5
sI11
I3
sI12
I5
sI15
I4
sI22
I5
sI25
I4
sI27
I4
sI28
I4
sI29
I2
sI31
I4
sI49
I4
sI50
I5
sI54
I3
sI56
I4
sI58
I4
sI62
I4
sI63
I4
sI64
I4
sI67
I4
sI68
I4
sI69
I5
sI70
I4
sI71
I3
sI72
I4
sI73
I3
sI76
I4
sI79
I5
sI81
I3
sI82
I3
sI87
I5
sI88
I4
sI89
I5
sI90
I2
sI95
I4
sI96
I4
sI97
I5
sI98
I5
sI99
I3
ssI893
(dp761
I96
I4
sI1
I5
sI69
I5
sI11
I4
sI77
I4
sI24
I4
sI50
I5
sI56
I5
ssI894
(dp762
I1
I4
sI7
I4
sI9
I4
sI10
I4
sI12
I5
sI13
I4
sI14
I4
sI15
I3
sI16
I3
sI19
I4
sI20
I5
sI25
I2
sI26
I4
sI30
I4
sI32
I4
sI45
I4
sI50
I4
sI52
I4
sI57
I4
sI59
I5
sI60
I5
sI61
I4
sI70
I3
sI83
I4
sI86
I4
sI93
I4
ssI895
(dp763
I1
I4
sI50
I5
sI13
I5
ssI896
(dp764
I1
I4
sI2
I3
sI4
I3
sI7
I4
sI8
I5
sI9
I4
sI11
I2
sI12
I3
sI15
I3
sI19
I2
sI20
I1
sI22
I5
sI23
I2
sI24
I4
sI25
I3
sI27
I1
sI28
I2
sI29
I2
sI31
I3
sI33
I2
sI39
I2
sI42
I4
sI43
I3
sI46
I2
sI48
I4
sI50
I5
sI51
I2
sI53
I1
sI54
I2
sI55
I3
sI58
I3
sI62
I2
sI64
I4
sI67
I2
sI68
I3
sI69
I5
sI70
I4
sI71
I5
sI73
I3
sI76
I3
sI77
I4
sI79
I5
sI80
I2
sI82
I3
sI83
I5
sI85
I3
sI86
I1
sI87
I4
sI88
I5
sI89
I5
sI91
I2
sI92
I1
sI95
I4
sI96
I5
sI97
I4
sI98
I5
ssI897
(dp765
I1
I5
sI8
I3
sI11
I2
sI22
I5
sI23
I3
sI25
I2
sI28
I4
sI33
I5
sI40
I3
sI50
I5
sI55
I3
sI56
I2
sI65
I4
sI66
I3
sI68
I5
sI69
I5
sI71
I5
sI73
I3
sI76
I4
sI77
I4
sI79
I5
sI82
I5
sI88
I4
sI89
I4
sI95
I3
sI96
I5
sI97
I5
sI98
I5
sI99
I5
ssI899
(dp766
I64
I4
sI1
I3
sI2
I3
sI69
I3
sI71
I4
sI8
I4
sI73
I4
sI83
I4
sI66
I4
sI96
I4
sI79
I5
sI48
I4
sI50
I5
sI51
I1
sI89
I4
sI25
I3
sI98
I4
sI31
I3
sI28
I5
sI29
I2
sI95
I5
ssI900
(dp767
I9
I2
sI31
I2
ssI901
(dp768
I1
I5
sI8
I3
sI12
I5
sI13
I1
sI15
I5
sI20
I1
sI22
I5
sI28
I5
sI35
I4
sI38
I3
sI50
I4
sI56
I1
sI58
I4
sI63
I5
sI66
I5
sI69
I5
sI71
I4
sI73
I5
sI78
I4
sI82
I5
sI88
I5
sI89
I3
sI91
I1
sI94
I4
sI95
I4
sI96
I5
ssI902
(dp769
I1
I5
sI8
I5
sI79
I5
sI50
I5
sI87
I4
sI95
I4
ssI903
(dp770
I1
I3
sI4
I4
sI7
I2
sI9
I3
sI11
I2
sI12
I5
sI13
I5
sI23
I5
sI25
I4
sI30
I5
sI46
I4
sI47
I5
sI48
I4
sI50
I5
sI52
I3
sI56
I5
sI59
I4
sI60
I4
sI61
I4
sI64
I5
sI79
I4
sI81
I5
sI87
I4
sI89
I4
sI91
I5
sI96
I2
sI98
I5
ssI904
(dp771
I88
I3
sI9
I4
sI66
I4
sI90
I2
sI97
I4
ssI905
(dp772
I7
I4
ssI906
(dp773
I9
I4
sI10
I4
sI15
I3
sI7
I3
ssI907
(dp774
I96
I5
sI19
I5
sI98
I5
sI1
I5
sI5
I5
sI71
I5
sI8
I3
sI42
I4
sI79
I5
sI50
I4
sI83
I5
sI97
I5
sI86
I5
sI88
I5
sI25
I5
sI15
I5
ssI908
(dp775
I96
I4
sI98
I5
sI69
I3
sI7
I3
sI12
I3
sI47
I3
sI50
I4
sI55
I3
sI56
I4
sI79
I4
sI28
I4
ssI909
(dp776
I86
I5
sI14
I4
ssI910
(dp777
I1
I4
sI98
I4
sI3
I2
sI9
I4
sI12
I4
sI56
I4
sI50
I5
sI23
I4
sI24
I3
sI25
I3
ssI911
(dp778
I98
I2
sI99
I3
sI7
I4
sI82
I2
sI83
I4
sI21
I4
sI87
I5
sI89
I4
sI26
I4
sI93
I4
ssI912
(dp779
I64
I4
sI97
I4
sI14
I5
sI15
I4
sI56
I2
sI28
I4
ssI913
(dp780
I1
I2
sI4
I4
sI7
I5
sI8
I2
sI9
I5
sI11
I4
sI12
I4
sI15
I3
sI19
I5
sI22
I5
sI25
I3
sI28
I3
sI42
I3
sI50
I4
sI56
I5
sI57
I4
sI58
I5
sI60
I3
sI64
I5
sI69
I2
sI79
I4
sI82
I3
sI83
I4
sI89
I5
sI92
I4
sI95
I4
sI96
I5
sI98
I4
sI99
I4
ssI914
(dp781
I88
I2
ssI916
(dp782
I1
I4
sI2
I3
sI3
I3
sI4
I4
sI5
I3
sI7
I4
sI9
I5
sI11
I4
sI12
I4
sI14
I5
sI17
I4
sI22
I4
sI23
I4
sI24
I2
sI28
I4
sI30
I4
sI31
I3
sI33
I2
sI39
I4
sI42
I5
sI46
I4
sI48
I5
sI49
I3
sI50
I5
sI51
I2
sI52
I5
sI53
I4
sI54
I3
sI55
I3
sI56
I5
sI58
I5
sI60
I4
sI64
I5
sI65
I3
sI66
I3
sI68
I3
sI69
I4
sI70
I4
sI71
I3
sI72
I3
sI73
I3
sI76
I3
sI77
I3
sI79
I3
sI80
I3
sI81
I5
sI82
I4
sI83
I4
sI85
I2
sI86
I4
sI87
I3
sI88
I4
sI89
I5
sI90
I3
sI91
I4
sI92
I5
sI96
I3
sI97
I4
sI98
I5
ssI917
(dp783
I25
I4
sI50
I3
sI3
I1
sI9
I5
sI1
I3
ssI918
(dp784
I64
I4
sI1
I3
sI69
I3
sI70
I3
sI72
I1
sI42
I3
sI45
I4
sI16
I4
sI82
I3
sI83
I4
sI86
I4
sI89
I5
sI88
I2
sI25
I4
sI28
I4
ssI919
(dp785
I1
I4
sI4
I1
sI5
I4
sI7
I3
sI9
I5
sI11
I4
sI12
I3
sI14
I4
sI15
I5
sI16
I4
sI19
I4
sI20
I1
sI21
I2
sI22
I5
sI23
I3
sI25
I4
sI28
I4
sI31
I3
sI50
I3
sI57
I5
sI58
I5
sI64
I5
sI69
I3
sI70
I4
sI82
I5
sI85
I2
sI88
I2
sI93
I5
sI95
I4
sI98
I5
sI99
I4
ssI921
(dp786
I96
I4
sI1
I3
sI66
I5
sI69
I4
sI97
I2
sI8
I3
sI71
I4
sI50
I4
sI15
I4
sI72
I4
sI82
I3
sI87
I2
sI24
I3
sI25
I3
sI79
I4
ssI922
(dp787
I1
I5
sI11
I5
sI15
I4
sI22
I5
sI29
I3
sI43
I3
sI50
I5
sI51
I4
sI56
I1
sI62
I3
sI63
I3
sI67
I3
sI68
I4
sI69
I3
sI71
I4
sI72
I4
sI77
I4
sI80
I3
sI82
I3
sI83
I4
sI89
I5
sI91
I4
sI94
I3
sI95
I3
sI98
I5
sI99
I4
ssI923
(dp788
I9
I4
sI50
I5
sI3
I4
sI1
I3
ssI924
(dp789
I96
I4
sI1
I5
sI2
I3
sI50
I5
sI6
I4
sI7
I4
sI64
I4
sI9
I4
sI71
I5
sI12
I4
sI13
I3
sI82
I4
sI56
I3
sI28
I4
sI31
I3
ssI925
(dp790
I56
I3
sI98
I4
sI5
I4
ssI927
(dp791
I1
I5
sI7
I3
sI8
I4
sI11
I5
sI15
I5
sI24
I3
sI25
I3
sI28
I4
sI29
I5
sI38
I5
sI41
I4
sI56
I4
sI63
I4
sI64
I5
sI67
I4
sI69
I4
sI71
I5
sI72
I5
sI79
I3
sI82
I2
sI91
I4
sI94
I2
sI95
I5
sI96
I5
sI99
I2
ssI928
(dp792
I8
I5
sI48
I5
sI98
I5
sI9
I5
ssI929
(dp793
I32
I3
sI1
I3
sI98
I5
sI12
I4
sI50
I4
sI22
I5
sI23
I3
sI56
I4
sI89
I5
sI28
I4
sI31
I2
ssI930
(dp794
I64
I4
sI1
I3
sI8
I3
sI45
I4
sI14
I4
sI16
I1
sI50
I2
sI24
I1
ssI931
(dp795
I50
I3
sI14
I4
ssI932
(dp796
I96
I4
sI1
I4
sI98
I5
sI67
I2
sI70
I4
sI38
I2
sI7
I4
sI64
I2
sI9
I5
sI45
I5
sI77
I2
sI14
I4
sI47
I4
sI82
I3
sI99
I4
sI54
I4
sI55
I3
sI56
I4
sI89
I5
sI86
I4
sI30
I4
ssI933
(dp797
I1
I3
sI4
I3
sI7
I4
sI9
I3
sI11
I4
sI12
I4
sI21
I1
sI22
I5
sI25
I2
sI28
I4
sI38
I2
sI39
I3
sI42
I1
sI50
I4
sI52
I3
sI53
I1
sI56
I5
sI58
I3
sI62
I1
sI63
I2
sI64
I5
sI67
I1
sI69
I4
sI70
I2
sI72
I3
sI73
I4
sI79
I3
sI80
I2
sI82
I3
sI87
I4
sI88
I3
sI89
I4
sI94
I1
sI95
I3
sI96
I2
sI97
I2
sI98
I5
ssI934
(dp798
I1
I2
sI2
I4
sI4
I5
sI13
I5
sI25
I4
sI50
I5
sI56
I5
sI65
I4
sI66
I4
sI67
I4
sI69
I5
sI70
I4
sI72
I3
sI82
I4
sI83
I4
sI86
I3
sI88
I4
sI89
I5
sI94
I4
sI96
I4
sI97
I4
sI99
I3
ssI935
(dp799
I9
I1
sI15
I5
sI1
I3
ssI936
(dp800
I1
I4
sI3
I4
sI6
I5
sI7
I4
sI9
I4
sI13
I4
sI14
I4
sI16
I4
sI50
I4
sI19
I5
sI20
I5
sI24
I4
sI25
I4
sI93
I5
ssI937
(dp801
I9
I5
sI50
I5
sI19
I1
sI93
I4
sI14
I4
ssI938
(dp802
I1
I4
sI7
I4
sI9
I3
sI15
I2
sI50
I5
sI25
I4
ssI939
(dp803
I9
I5
sI15
I5
ssI940
(dp804
I96
I5
sI66
I4
sI4
I2
sI69
I2
sI70
I3
sI7
I4
sI8
I5
sI9
I3
sI12
I4
sI98
I4
sI14
I3
sI47
I3
sI50
I4
sI82
I4
sI56
I5
sI89
I4
sI95
I5
ssI941
(dp805
I1
I5
sI15
I4
sI7
I4
ssI942
(dp806
I97
I5
sI99
I5
sI71
I5
sI79
I5
sI50
I5
sI31
I5
sI95
I5
ssI943
(dp807
I2
I5
sI9
I3
sI11
I4
sI12
I5
sI22
I4
sI23
I4
sI24
I4
sI27
I4
sI28
I4
sI31
I4
sI38
I3
sI41
I4
sI42
I5
sI50
I4
sI51
I1
sI53
I3
sI54
I4
sI55
I5
sI56
I5
sI58
I4
sI62
I3
sI64
I5
sI67
I4
sI68
I4
sI69
I5
sI72
I2
sI73
I3
sI76
I4
sI79
I5
sI80
I2
sI92
I5
sI94
I4
sI96
I4
sI97
I2
sI98
I5
sss.